                              1 ;--------------------------------------------------------
                              2 ; File Created by SDCC : FreeWare ANSI-C Compiler
                              3 ; Version 2.2.1 Sun Oct 19 01:08:54 2014
                              4 
                              5 ;--------------------------------------------------------
                              6 	.module lcc97200
                              7 	
                              8 ;--------------------------------------------------------
                              9 ; Public variables in this module
                             10 ;--------------------------------------------------------
                             11 	.globl _modes
                             12 	.globl _colors
                             13 	.globl _cursors_data
                             14 	.globl _cursors
                             15 	.globl _selected_data
                             16 	.globl _data
                             17 	.globl _icons
                             18 	.globl _initL
                             19 	.globl _main
                             20 	.globl _musicTest
                             21 	.globl _fontTest
                             22 	.globl _delayFrames
                             23 	.globl _run
                             24 	.globl _menu
                             25 	.globl _splash
                             26 	.globl _reset_icon
                             27 	.globl _change_icon
                             28 	.globl _set_icon
                             29 	.globl _move_menu_cursor
                             30 	.globl _move_cursor
                             31 	.globl _set_cursor
                             32 	.globl _music
                             33 	.globl _voice3
                             34 	.globl _voice2
                             35 	.globl _voice1
                             36 	.globl _voice0
                             37 	.globl _instru_test
                             38 	.globl _effect_test
                             39 	.globl _resetmusic
                             40 	.globl _stopmusic
                             41 	.globl _patern_definition
                             42 	.globl _setchar
                             43 	.globl _posy
                             44 	.globl _posx
                             45 	.globl _gotoxy
                             46 	.globl _print_repeat
                             47 	.globl _font_set
                             48 	.globl _font_load
                             49 	.globl _font_init
                             50 	.globl _color
                             51 	.globl _gotogxy
                             52 	.globl _wrtchr
                             53 	.globl _getpix
                             54 	.globl _circle
                             55 	.globl _box
                             56 	.globl _line
                             57 	.globl _draw_image
                             58 	.globl _switch_data
                             59 	.globl _plot_point
                             60 	.globl _plot
                             61 	.globl _gprintf
                             62 	.globl _gprintn
                             63 	.globl _gprintln
                             64 	.globl _gprint
                             65 	.globl _get_tiles
                             66 	.globl _set_tiles
                             67 	.globl _get_data
                             68 	.globl _set_data
                             69 	.globl _scroll_sprite
                             70 	.globl _move_sprite
                             71 	.globl _get_sprite_prop
                             72 	.globl _set_sprite_prop
                             73 	.globl _get_sprite_tile
                             74 	.globl _set_sprite_tile
                             75 	.globl _get_sprite_data
                             76 	.globl _set_sprite_data
                             77 	.globl _scroll_win
                             78 	.globl _move_win
                             79 	.globl _get_win_tiles
                             80 	.globl _set_win_tiles
                             81 	.globl _set_win_data
                             82 	.globl _scroll_bkg
                             83 	.globl _move_bkg
                             84 	.globl _get_bkg_tiles
                             85 	.globl _set_bkg_tiles
                             86 	.globl _set_bkg_data
                             87 	.globl _hiramcpy
                             88 	.globl _display_off
                             89 	.globl _wait_vbl_done
                             90 	.globl _reset
                             91 	.globl _set_interrupts
                             92 	.globl _disable_interrupts
                             93 	.globl _enable_interrupts
                             94 	.globl _waitpadup
                             95 	.globl _waitpad
                             96 	.globl _joypad
                             97 	.globl _delay
                             98 	.globl _receive_byte
                             99 	.globl _send_byte
                            100 	.globl _get_mode
                            101 	.globl _mode
                            102 	.globl _add_TIM
                            103 	.globl _add_LCD
                            104 	.globl _add_VBL
                            105 	.globl _remove_JOY
                            106 	.globl _remove_SIO
                            107 	.globl _remove_TIM
                            108 	.globl _remove_LCD
                            109 	.globl _remove_VBL
                            110 	.globl _cgb_compatibility
                            111 	.globl _cpu_fast
                            112 	.globl _cpu_slow
                            113 	.globl _set_sprite_palette_entry
                            114 	.globl _set_bkg_palette_entry
                            115 	.globl _set_sprite_palette
                            116 	.globl _set_bkg_palette
                            117 	.globl _sgb_check
                            118 	.globl _gets
                            119 	.globl _puts
                            120 	.globl _sprintf
                            121 	.globl _printf
                            122 	.globl _putchar
                            123 	.globl _cursor_y
                            124 	.globl _cursor_x
                            125 	.globl _menu_cursor_pos
                            126 	.globl _current_cursor
                            127 	.globl _current_mode
                            128 	.globl _current_color
                            129 	.globl _current_tool
                            130 	.globl _data_buffer
                            131 	.globl _frequencies
                            132 	.globl _wave
                            133 	.globl _snd_cons3
                            134 	.globl _snd_poly3
                            135 	.globl _snd_env3
                            136 	.globl _snd_lngh3
                            137 	.globl _snd_cons1
                            138 	.globl _snd_env1
                            139 	.globl _snd_lngh1
                            140 	.globl _snd_cons0
                            141 	.globl _snd_env0
                            142 	.globl _snd_lngh0
                            143 	.globl _snd_swp0
                            144 	.globl _fx_pan3
                            145 	.globl _fx_pan2
                            146 	.globl _fx_pan1
                            147 	.globl _fx_pan0
                            148 	.globl _fx_volume
                            149 	.globl _fx_value
                            150 	.globl _data_song
                            151 	.globl _gb_freq
                            152 	.globl _freqHI_v2
                            153 	.globl _freqHI_v1
                            154 	.globl _freqHI
                            155 	.globl _freqLOW
                            156 	.globl _voice
                            157 	.globl _musicwait
                            158 	.globl _timer
                            159 	.globl _step
                            160 	.globl _clock01
                            161 	.globl _data_song_ptr
                            162 	.globl _song_nbr
                            163 	.globl _nbr_patern
                            164 	.globl _patern
                            165 ;--------------------------------------------------------
                            166 ; Externals used
                            167 ;--------------------------------------------------------
                            168 	.globl _IE_REG
                            169 	.globl _SVBK_REG
                            170 	.globl _OCPD_REG
                            171 	.globl _OCPS_REG
                            172 	.globl _BCPD_REG
                            173 	.globl _BCPS_REG
                            174 	.globl _RP_REG
                            175 	.globl _HDMA5_REG
                            176 	.globl _HDMA4_REG
                            177 	.globl _HDMA3_REG
                            178 	.globl _HDMA2_REG
                            179 	.globl _HDMA1_REG
                            180 	.globl _VBK_REG
                            181 	.globl _KEY1_REG
                            182 	.globl _WX_REG
                            183 	.globl _WY_REG
                            184 	.globl _OBP1_REG
                            185 	.globl _OBP0_REG
                            186 	.globl _BGP_REG
                            187 	.globl _DMA_REG
                            188 	.globl _LYC_REG
                            189 	.globl _LY_REG
                            190 	.globl _SCX_REG
                            191 	.globl _SCY_REG
                            192 	.globl _STAT_REG
                            193 	.globl _LCDC_REG
                            194 	.globl _NR52_REG
                            195 	.globl _NR51_REG
                            196 	.globl _NR50_REG
                            197 	.globl _NR44_REG
                            198 	.globl _NR43_REG
                            199 	.globl _NR42_REG
                            200 	.globl _NR41_REG
                            201 	.globl _NR34_REG
                            202 	.globl _NR33_REG
                            203 	.globl _NR32_REG
                            204 	.globl _NR31_REG
                            205 	.globl _NR30_REG
                            206 	.globl _NR24_REG
                            207 	.globl _NR23_REG
                            208 	.globl _NR22_REG
                            209 	.globl _NR21_REG
                            210 	.globl _NR14_REG
                            211 	.globl _NR13_REG
                            212 	.globl _NR12_REG
                            213 	.globl _NR11_REG
                            214 	.globl _NR10_REG
                            215 	.globl _IF_REG
                            216 	.globl _TAC_REG
                            217 	.globl _TMA_REG
                            218 	.globl _TIMA_REG
                            219 	.globl _DIV_REG
                            220 	.globl _SC_REG
                            221 	.globl _SB_REG
                            222 	.globl _P1_REG
                            223 	.globl _data_song_fullos8
                            224 	.globl _data_song_fullos7
                            225 	.globl _data_song_fullos6
                            226 	.globl _data_song_fullos5
                            227 	.globl _data_song_fullos4
                            228 	.globl _data_song_fullos3
                            229 	.globl _data_song_fullos2
                            230 	.globl _data_song_fullos1
                            231 	.globl _data_song_fullos0
                            232 	.globl _font_ibm_fixed
                            233 	.globl _font_min
                            234 	.globl _font_ibm
                            235 	.globl _font_italic
                            236 	.globl _font_spect
                            237 	.globl __io_out
                            238 	.globl __io_in
                            239 	.globl __io_status
                            240 	.globl _sys_time
                            241 	.globl __cpu
                            242 ;--------------------------------------------------------
                            243 ; special function registers
                            244 ;--------------------------------------------------------
                            245 ;--------------------------------------------------------
                            246 ; special function bits 
                            247 ;--------------------------------------------------------
                            248 ;--------------------------------------------------------
                            249 ; internal ram data
                            250 ;--------------------------------------------------------
                            251 	.area _DATA
   0000                     252 _patern::
   0000                     253 	.ds 2
   0002                     254 _nbr_patern::
   0002                     255 	.ds 2
   0004                     256 _song_nbr::
   0004                     257 	.ds 2
   0006                     258 _data_song_ptr::
   0006                     259 	.ds 2
   0008                     260 _clock01::
   0008                     261 	.ds 2
   000A                     262 _step::
   000A                     263 	.ds 2
   000C                     264 _timer::
   000C                     265 	.ds 2
   000E                     266 _musicwait::
   000E                     267 	.ds 2
   0010                     268 _voice::
   0010                     269 	.ds 2
   0012                     270 _freqLOW::
   0012                     271 	.ds 1
   0013                     272 _freqHI::
   0013                     273 	.ds 1
   0014                     274 _freqHI_v1::
   0014                     275 	.ds 2
   0016                     276 _freqHI_v2::
   0016                     277 	.ds 2
   0018                     278 _gb_freq::
   0018                     279 	.ds 2
   001A                     280 _data_song::
   001A                     281 	.ds 2
   001C                     282 _fx_value::
   001C                     283 	.ds 1
   001D                     284 _fx_volume::
   001D                     285 	.ds 1
   001E                     286 _fx_pan0::
   001E                     287 	.ds 2
   0020                     288 _fx_pan1::
   0020                     289 	.ds 2
   0022                     290 _fx_pan2::
   0022                     291 	.ds 2
   0024                     292 _fx_pan3::
   0024                     293 	.ds 2
   0026                     294 _snd_swp0::
   0026                     295 	.ds 2
   0028                     296 _snd_lngh0::
   0028                     297 	.ds 2
   002A                     298 _snd_env0::
   002A                     299 	.ds 2
   002C                     300 _snd_cons0::
   002C                     301 	.ds 2
   002E                     302 _snd_lngh1::
   002E                     303 	.ds 2
   0030                     304 _snd_env1::
   0030                     305 	.ds 2
   0032                     306 _snd_cons1::
   0032                     307 	.ds 2
   0034                     308 _snd_lngh3::
   0034                     309 	.ds 2
   0036                     310 _snd_env3::
   0036                     311 	.ds 2
   0038                     312 _snd_poly3::
   0038                     313 	.ds 2
   003A                     314 _snd_cons3::
   003A                     315 	.ds 2
   003C                     316 _wave::
   003C                     317 	.ds 256
   013C                     318 _frequencies::
   013C                     319 	.ds 144
   01CC                     320 _data_buffer::
   01CC                     321 	.ds 768
   04CC                     322 _current_tool::
   04CC                     323 	.ds 1
   04CD                     324 _current_color::
   04CD                     325 	.ds 1
   04CE                     326 _current_mode::
   04CE                     327 	.ds 1
   04CF                     328 _current_cursor::
   04CF                     329 	.ds 1
   04D0                     330 _menu_cursor_pos::
   04D0                     331 	.ds 1
   04D1                     332 _cursor_x::
   04D1                     333 	.ds 1
   04D2                     334 _cursor_y::
   04D2                     335 	.ds 1
                            336 ;--------------------------------------------------------
                            337 ; overlayable items in internal ram 
                            338 ;--------------------------------------------------------
                            339 	.area _OVERLAY
                            340 ;--------------------------------------------------------
                            341 ; indirectly addressable internal ram data
                            342 ;--------------------------------------------------------
                            343 	.area _ISEG
                            344 ;--------------------------------------------------------
                            345 ; bit data
                            346 ;--------------------------------------------------------
                            347 	.area _BSEG
                            348 ;--------------------------------------------------------
                            349 ; external ram data
                            350 ;--------------------------------------------------------
                            351 	.area _XSEG
                            352 ;--------------------------------------------------------
                            353 ; global & static initialisations
                            354 ;--------------------------------------------------------
                            355 	.area _GSINIT
                            356 	.area _GSFINAL
                            357 	.area _GSINIT
                            358 ;	mypaint.c 623
                            359 ; genAssign (pointer)
   0000 11 3C 00            360 	ld	de,#_wave + 0
   0003 3E FF               361 	ld	a,#0xFF
   0005 12                  362 	ld	(de),a
   0006 13                  363 	inc	de
   0007 3E 00               364 	ld	a,#0x00
   0009 12                  365 	ld	(de),a
                            366 ; genPlus
                            367 ; genPlusIncr
   000A 11 3E 00            368 	ld	de,#_wave + 2
                            369 ; genAssign (pointer)
   000D 3E FF               370 	ld	a,#0xFF
   000F 12                  371 	ld	(de),a
   0010 13                  372 	inc	de
   0011 3E 00               373 	ld	a,#0x00
   0013 12                  374 	ld	(de),a
                            375 ; genPlus
                            376 ; genPlusIncr
   0014 11 40 00            377 	ld	de,#_wave + 4
                            378 ; genAssign (pointer)
   0017 3E FF               379 	ld	a,#0xFF
   0019 12                  380 	ld	(de),a
   001A 13                  381 	inc	de
   001B 3E 00               382 	ld	a,#0x00
   001D 12                  383 	ld	(de),a
                            384 ; genPlus
                            385 ; genPlusIncr
   001E 11 42 00            386 	ld	de,#_wave + 6
                            387 ; genAssign (pointer)
   0021 3E FF               388 	ld	a,#0xFF
   0023 12                  389 	ld	(de),a
   0024 13                  390 	inc	de
   0025 3E 00               391 	ld	a,#0x00
   0027 12                  392 	ld	(de),a
                            393 ; genPlus
                            394 ; genPlusIncr
   0028 11 44 00            395 	ld	de,#_wave + 8
                            396 ; genAssign (pointer)
   002B 3E FF               397 	ld	a,#0xFF
   002D 12                  398 	ld	(de),a
   002E 13                  399 	inc	de
   002F 3E 00               400 	ld	a,#0x00
   0031 12                  401 	ld	(de),a
                            402 ; genPlus
                            403 ; genPlusIncr
   0032 11 46 00            404 	ld	de,#_wave + 10
                            405 ; genAssign (pointer)
   0035 3E FD               406 	ld	a,#0xFD
   0037 12                  407 	ld	(de),a
   0038 13                  408 	inc	de
   0039 3E 00               409 	ld	a,#0x00
   003B 12                  410 	ld	(de),a
                            411 ; genPlus
                            412 ; genPlusIncr
   003C 11 48 00            413 	ld	de,#_wave + 12
                            414 ; genAssign (pointer)
   003F 3E CB               415 	ld	a,#0xCB
   0041 12                  416 	ld	(de),a
   0042 13                  417 	inc	de
   0043 3E 00               418 	ld	a,#0x00
   0045 12                  419 	ld	(de),a
                            420 ; genPlus
                            421 ; genPlusIncr
   0046 11 4A 00            422 	ld	de,#_wave + 14
                            423 ; genAssign (pointer)
   0049 3E A8               424 	ld	a,#0xA8
   004B 12                  425 	ld	(de),a
   004C 13                  426 	inc	de
   004D 3E 00               427 	ld	a,#0x00
   004F 12                  428 	ld	(de),a
                            429 ; genPlus
                            430 ; genPlusIncr
   0050 11 4C 00            431 	ld	de,#_wave + 16
                            432 ; genAssign (pointer)
   0053 3E 75               433 	ld	a,#0x75
   0055 12                  434 	ld	(de),a
   0056 13                  435 	inc	de
   0057 3E 00               436 	ld	a,#0x00
   0059 12                  437 	ld	(de),a
                            438 ; genPlus
                            439 ; genPlusIncr
   005A 11 4E 00            440 	ld	de,#_wave + 18
                            441 ; genAssign (pointer)
   005D 3E 43               442 	ld	a,#0x43
   005F 12                  443 	ld	(de),a
   0060 13                  444 	inc	de
   0061 3E 00               445 	ld	a,#0x00
   0063 12                  446 	ld	(de),a
                            447 ; genPlus
                            448 ; genPlusIncr
   0064 11 50 00            449 	ld	de,#_wave + 20
                            450 ; genAssign (pointer)
   0067 3E 21               451 	ld	a,#0x21
   0069 12                  452 	ld	(de),a
   006A 13                  453 	inc	de
   006B 3E 00               454 	ld	a,#0x00
   006D 12                  455 	ld	(de),a
                            456 ; genPlus
                            457 ; genPlusIncr
   006E 11 52 00            458 	ld	de,#_wave + 22
                            459 ; genAssign (pointer)
   0071 3E 00               460 	ld	a,#0x00
   0073 12                  461 	ld	(de),a
   0074 13                  462 	inc	de
   0075 3E 00               463 	ld	a,#0x00
   0077 12                  464 	ld	(de),a
                            465 ; genPlus
                            466 ; genPlusIncr
   0078 11 54 00            467 	ld	de,#_wave + 24
                            468 ; genAssign (pointer)
   007B 3E 00               469 	ld	a,#0x00
   007D 12                  470 	ld	(de),a
   007E 13                  471 	inc	de
   007F 3E 00               472 	ld	a,#0x00
   0081 12                  473 	ld	(de),a
                            474 ; genPlus
                            475 ; genPlusIncr
   0082 11 56 00            476 	ld	de,#_wave + 26
                            477 ; genAssign (pointer)
   0085 3E 00               478 	ld	a,#0x00
   0087 12                  479 	ld	(de),a
   0088 13                  480 	inc	de
   0089 3E 00               481 	ld	a,#0x00
   008B 12                  482 	ld	(de),a
                            483 ; genPlus
                            484 ; genPlusIncr
   008C 11 58 00            485 	ld	de,#_wave + 28
                            486 ; genAssign (pointer)
   008F 3E 00               487 	ld	a,#0x00
   0091 12                  488 	ld	(de),a
   0092 13                  489 	inc	de
   0093 3E 00               490 	ld	a,#0x00
   0095 12                  491 	ld	(de),a
                            492 ; genPlus
                            493 ; genPlusIncr
   0096 11 5A 00            494 	ld	de,#_wave + 30
                            495 ; genAssign (pointer)
   0099 3E 00               496 	ld	a,#0x00
   009B 12                  497 	ld	(de),a
   009C 13                  498 	inc	de
   009D 3E 00               499 	ld	a,#0x00
   009F 12                  500 	ld	(de),a
                            501 ; genPlus
                            502 ; genPlusIncr
   00A0 11 5C 00            503 	ld	de,#_wave + 32
                            504 ; genAssign (pointer)
   00A3 3E FF               505 	ld	a,#0xFF
   00A5 12                  506 	ld	(de),a
   00A6 13                  507 	inc	de
   00A7 3E 00               508 	ld	a,#0x00
   00A9 12                  509 	ld	(de),a
                            510 ; genPlus
                            511 ; genPlusIncr
   00AA 11 5E 00            512 	ld	de,#_wave + 34
                            513 ; genAssign (pointer)
   00AD 3E FF               514 	ld	a,#0xFF
   00AF 12                  515 	ld	(de),a
   00B0 13                  516 	inc	de
   00B1 3E 00               517 	ld	a,#0x00
   00B3 12                  518 	ld	(de),a
                            519 ; genPlus
                            520 ; genPlusIncr
   00B4 11 60 00            521 	ld	de,#_wave + 36
                            522 ; genAssign (pointer)
   00B7 3E FF               523 	ld	a,#0xFF
   00B9 12                  524 	ld	(de),a
   00BA 13                  525 	inc	de
   00BB 3E 00               526 	ld	a,#0x00
   00BD 12                  527 	ld	(de),a
                            528 ; genPlus
                            529 ; genPlusIncr
   00BE 11 62 00            530 	ld	de,#_wave + 38
                            531 ; genAssign (pointer)
   00C1 3E FF               532 	ld	a,#0xFF
   00C3 12                  533 	ld	(de),a
   00C4 13                  534 	inc	de
   00C5 3E 00               535 	ld	a,#0x00
   00C7 12                  536 	ld	(de),a
                            537 ; genPlus
                            538 ; genPlusIncr
   00C8 11 64 00            539 	ld	de,#_wave + 40
                            540 ; genAssign (pointer)
   00CB 3E B7               541 	ld	a,#0xB7
   00CD 12                  542 	ld	(de),a
   00CE 13                  543 	inc	de
   00CF 3E 00               544 	ld	a,#0x00
   00D1 12                  545 	ld	(de),a
                            546 ; genPlus
                            547 ; genPlusIncr
   00D2 11 66 00            548 	ld	de,#_wave + 42
                            549 ; genAssign (pointer)
   00D5 3E 42               550 	ld	a,#0x42
   00D7 12                  551 	ld	(de),a
   00D8 13                  552 	inc	de
   00D9 3E 00               553 	ld	a,#0x00
   00DB 12                  554 	ld	(de),a
                            555 ; genPlus
                            556 ; genPlusIncr
   00DC 11 68 00            557 	ld	de,#_wave + 44
                            558 ; genAssign (pointer)
   00DF 3E 23               559 	ld	a,#0x23
   00E1 12                  560 	ld	(de),a
   00E2 13                  561 	inc	de
   00E3 3E 00               562 	ld	a,#0x00
   00E5 12                  563 	ld	(de),a
                            564 ; genPlus
                            565 ; genPlusIncr
   00E6 11 6A 00            566 	ld	de,#_wave + 46
                            567 ; genAssign (pointer)
   00E9 3E 46               568 	ld	a,#0x46
   00EB 12                  569 	ld	(de),a
   00EC 13                  570 	inc	de
   00ED 3E 00               571 	ld	a,#0x00
   00EF 12                  572 	ld	(de),a
                            573 ; genPlus
                            574 ; genPlusIncr
   00F0 11 6C 00            575 	ld	de,#_wave + 48
                            576 ; genAssign (pointer)
   00F3 3E 9B               577 	ld	a,#0x9B
   00F5 12                  578 	ld	(de),a
   00F6 13                  579 	inc	de
   00F7 3E 00               580 	ld	a,#0x00
   00F9 12                  581 	ld	(de),a
                            582 ; genPlus
                            583 ; genPlusIncr
   00FA 11 6E 00            584 	ld	de,#_wave + 50
                            585 ; genAssign (pointer)
   00FD 3E CD               586 	ld	a,#0xCD
   00FF 12                  587 	ld	(de),a
   0100 13                  588 	inc	de
   0101 3E 00               589 	ld	a,#0x00
   0103 12                  590 	ld	(de),a
                            591 ; genPlus
                            592 ; genPlusIncr
   0104 11 70 00            593 	ld	de,#_wave + 52
                            594 ; genAssign (pointer)
   0107 3E DB               595 	ld	a,#0xDB
   0109 12                  596 	ld	(de),a
   010A 13                  597 	inc	de
   010B 3E 00               598 	ld	a,#0x00
   010D 12                  599 	ld	(de),a
                            600 ; genPlus
                            601 ; genPlusIncr
   010E 11 72 00            602 	ld	de,#_wave + 54
                            603 ; genAssign (pointer)
   0111 3E 84               604 	ld	a,#0x84
   0113 12                  605 	ld	(de),a
   0114 13                  606 	inc	de
   0115 3E 00               607 	ld	a,#0x00
   0117 12                  608 	ld	(de),a
                            609 ; genPlus
                            610 ; genPlusIncr
   0118 11 74 00            611 	ld	de,#_wave + 56
                            612 ; genAssign (pointer)
   011B 3E 00               613 	ld	a,#0x00
   011D 12                  614 	ld	(de),a
   011E 13                  615 	inc	de
   011F 3E 00               616 	ld	a,#0x00
   0121 12                  617 	ld	(de),a
                            618 ; genPlus
                            619 ; genPlusIncr
   0122 11 76 00            620 	ld	de,#_wave + 58
                            621 ; genAssign (pointer)
   0125 3E 00               622 	ld	a,#0x00
   0127 12                  623 	ld	(de),a
   0128 13                  624 	inc	de
   0129 3E 00               625 	ld	a,#0x00
   012B 12                  626 	ld	(de),a
                            627 ; genPlus
                            628 ; genPlusIncr
   012C 11 78 00            629 	ld	de,#_wave + 60
                            630 ; genAssign (pointer)
   012F 3E 00               631 	ld	a,#0x00
   0131 12                  632 	ld	(de),a
   0132 13                  633 	inc	de
   0133 3E 00               634 	ld	a,#0x00
   0135 12                  635 	ld	(de),a
                            636 ; genPlus
                            637 ; genPlusIncr
   0136 11 7A 00            638 	ld	de,#_wave + 62
                            639 ; genAssign (pointer)
   0139 3E 00               640 	ld	a,#0x00
   013B 12                  641 	ld	(de),a
   013C 13                  642 	inc	de
   013D 3E 00               643 	ld	a,#0x00
   013F 12                  644 	ld	(de),a
                            645 ; genPlus
                            646 ; genPlusIncr
   0140 11 7C 00            647 	ld	de,#_wave + 64
                            648 ; genAssign (pointer)
   0143 3E FF               649 	ld	a,#0xFF
   0145 12                  650 	ld	(de),a
   0146 13                  651 	inc	de
   0147 3E 00               652 	ld	a,#0x00
   0149 12                  653 	ld	(de),a
                            654 ; genPlus
                            655 ; genPlusIncr
   014A 11 7E 00            656 	ld	de,#_wave + 66
                            657 ; genAssign (pointer)
   014D 3E 89               658 	ld	a,#0x89
   014F 12                  659 	ld	(de),a
   0150 13                  660 	inc	de
   0151 3E 00               661 	ld	a,#0x00
   0153 12                  662 	ld	(de),a
                            663 ; genPlus
                            664 ; genPlusIncr
   0154 11 80 00            665 	ld	de,#_wave + 68
                            666 ; genAssign (pointer)
   0157 3E CB               667 	ld	a,#0xCB
   0159 12                  668 	ld	(de),a
   015A 13                  669 	inc	de
   015B 3E 00               670 	ld	a,#0x00
   015D 12                  671 	ld	(de),a
                            672 ; genPlus
                            673 ; genPlusIncr
   015E 11 82 00            674 	ld	de,#_wave + 70
                            675 ; genAssign (pointer)
   0161 3E 88               676 	ld	a,#0x88
   0163 12                  677 	ld	(de),a
   0164 13                  678 	inc	de
   0165 3E 00               679 	ld	a,#0x00
   0167 12                  680 	ld	(de),a
                            681 ; genPlus
                            682 ; genPlusIncr
   0168 11 84 00            683 	ld	de,#_wave + 72
                            684 ; genAssign (pointer)
   016B 3E BA               685 	ld	a,#0xBA
   016D 12                  686 	ld	(de),a
   016E 13                  687 	inc	de
   016F 3E 00               688 	ld	a,#0x00
   0171 12                  689 	ld	(de),a
                            690 ; genPlus
                            691 ; genPlusIncr
   0172 11 86 00            692 	ld	de,#_wave + 74
                            693 ; genAssign (pointer)
   0175 3E 78               694 	ld	a,#0x78
   0177 12                  695 	ld	(de),a
   0178 13                  696 	inc	de
   0179 3E 00               697 	ld	a,#0x00
   017B 12                  698 	ld	(de),a
                            699 ; genPlus
                            700 ; genPlusIncr
   017C 11 88 00            701 	ld	de,#_wave + 76
                            702 ; genAssign (pointer)
   017F 3E 99               703 	ld	a,#0x99
   0181 12                  704 	ld	(de),a
   0182 13                  705 	inc	de
   0183 3E 00               706 	ld	a,#0x00
   0185 12                  707 	ld	(de),a
                            708 ; genPlus
                            709 ; genPlusIncr
   0186 11 8A 00            710 	ld	de,#_wave + 78
                            711 ; genAssign (pointer)
   0189 3E 77               712 	ld	a,#0x77
   018B 12                  713 	ld	(de),a
   018C 13                  714 	inc	de
   018D 3E 00               715 	ld	a,#0x00
   018F 12                  716 	ld	(de),a
                            717 ; genPlus
                            718 ; genPlusIncr
   0190 11 8C 00            719 	ld	de,#_wave + 80
                            720 ; genAssign (pointer)
   0193 3E 88               721 	ld	a,#0x88
   0195 12                  722 	ld	(de),a
   0196 13                  723 	inc	de
   0197 3E 00               724 	ld	a,#0x00
   0199 12                  725 	ld	(de),a
                            726 ; genPlus
                            727 ; genPlusIncr
   019A 11 8E 00            728 	ld	de,#_wave + 82
                            729 ; genAssign (pointer)
   019D 3E 66               730 	ld	a,#0x66
   019F 12                  731 	ld	(de),a
   01A0 13                  732 	inc	de
   01A1 3E 00               733 	ld	a,#0x00
   01A3 12                  734 	ld	(de),a
                            735 ; genPlus
                            736 ; genPlusIncr
   01A4 11 90 00            737 	ld	de,#_wave + 84
                            738 ; genAssign (pointer)
   01A7 3E 78               739 	ld	a,#0x78
   01A9 12                  740 	ld	(de),a
   01AA 13                  741 	inc	de
   01AB 3E 00               742 	ld	a,#0x00
   01AD 12                  743 	ld	(de),a
                            744 ; genPlus
                            745 ; genPlusIncr
   01AE 11 92 00            746 	ld	de,#_wave + 86
                            747 ; genAssign (pointer)
   01B1 3E 54               748 	ld	a,#0x54
   01B3 12                  749 	ld	(de),a
   01B4 13                  750 	inc	de
   01B5 3E 00               751 	ld	a,#0x00
   01B7 12                  752 	ld	(de),a
                            753 ; genPlus
                            754 ; genPlusIncr
   01B8 11 94 00            755 	ld	de,#_wave + 88
                            756 ; genAssign (pointer)
   01BB 3E 77               757 	ld	a,#0x77
   01BD 12                  758 	ld	(de),a
   01BE 13                  759 	inc	de
   01BF 3E 00               760 	ld	a,#0x00
   01C1 12                  761 	ld	(de),a
                            762 ; genPlus
                            763 ; genPlusIncr
   01C2 11 96 00            764 	ld	de,#_wave + 90
                            765 ; genAssign (pointer)
   01C5 3E 43               766 	ld	a,#0x43
   01C7 12                  767 	ld	(de),a
   01C8 13                  768 	inc	de
   01C9 3E 00               769 	ld	a,#0x00
   01CB 12                  770 	ld	(de),a
                            771 ; genPlus
                            772 ; genPlusIncr
   01CC 11 98 00            773 	ld	de,#_wave + 92
                            774 ; genAssign (pointer)
   01CF 3E 67               775 	ld	a,#0x67
   01D1 12                  776 	ld	(de),a
   01D2 13                  777 	inc	de
   01D3 3E 00               778 	ld	a,#0x00
   01D5 12                  779 	ld	(de),a
                            780 ; genPlus
                            781 ; genPlusIncr
   01D6 11 9A 00            782 	ld	de,#_wave + 94
                            783 ; genAssign (pointer)
   01D9 3E 00               784 	ld	a,#0x00
   01DB 12                  785 	ld	(de),a
   01DC 13                  786 	inc	de
   01DD 3E 00               787 	ld	a,#0x00
   01DF 12                  788 	ld	(de),a
                            789 ; genPlus
                            790 ; genPlusIncr
   01E0 11 9C 00            791 	ld	de,#_wave + 96
                            792 ; genAssign (pointer)
   01E3 3E F8               793 	ld	a,#0xF8
   01E5 12                  794 	ld	(de),a
   01E6 13                  795 	inc	de
   01E7 3E 00               796 	ld	a,#0x00
   01E9 12                  797 	ld	(de),a
                            798 ; genPlus
                            799 ; genPlusIncr
   01EA 11 9E 00            800 	ld	de,#_wave + 98
                            801 ; genAssign (pointer)
   01ED 3E B8               802 	ld	a,#0xB8
   01EF 12                  803 	ld	(de),a
   01F0 13                  804 	inc	de
   01F1 3E 00               805 	ld	a,#0x00
   01F3 12                  806 	ld	(de),a
                            807 ; genPlus
                            808 ; genPlusIncr
   01F4 11 A0 00            809 	ld	de,#_wave + 100
                            810 ; genAssign (pointer)
   01F7 3E A9               811 	ld	a,#0xA9
   01F9 12                  812 	ld	(de),a
   01FA 13                  813 	inc	de
   01FB 3E 00               814 	ld	a,#0x00
   01FD 12                  815 	ld	(de),a
                            816 ; genPlus
                            817 ; genPlusIncr
   01FE 11 A2 00            818 	ld	de,#_wave + 102
                            819 ; genAssign (pointer)
   0201 3E 99               820 	ld	a,#0x99
   0203 12                  821 	ld	(de),a
   0204 13                  822 	inc	de
   0205 3E 00               823 	ld	a,#0x00
   0207 12                  824 	ld	(de),a
                            825 ; genPlus
                            826 ; genPlusIncr
   0208 11 A4 00            827 	ld	de,#_wave + 104
                            828 ; genAssign (pointer)
   020B 3E 89               829 	ld	a,#0x89
   020D 12                  830 	ld	(de),a
   020E 13                  831 	inc	de
   020F 3E 00               832 	ld	a,#0x00
   0211 12                  833 	ld	(de),a
                            834 ; genPlus
                            835 ; genPlusIncr
   0212 11 A6 00            836 	ld	de,#_wave + 106
                            837 ; genAssign (pointer)
   0215 3E 89               838 	ld	a,#0x89
   0217 12                  839 	ld	(de),a
   0218 13                  840 	inc	de
   0219 3E 00               841 	ld	a,#0x00
   021B 12                  842 	ld	(de),a
                            843 ; genPlus
                            844 ; genPlusIncr
   021C 11 A8 00            845 	ld	de,#_wave + 108
                            846 ; genAssign (pointer)
   021F 3E 88               847 	ld	a,#0x88
   0221 12                  848 	ld	(de),a
   0222 13                  849 	inc	de
   0223 3E 00               850 	ld	a,#0x00
   0225 12                  851 	ld	(de),a
                            852 ; genPlus
                            853 ; genPlusIncr
   0226 11 AA 00            854 	ld	de,#_wave + 110
                            855 ; genAssign (pointer)
   0229 3E 78               856 	ld	a,#0x78
   022B 12                  857 	ld	(de),a
   022C 13                  858 	inc	de
   022D 3E 00               859 	ld	a,#0x00
   022F 12                  860 	ld	(de),a
                            861 ; genPlus
                            862 ; genPlusIncr
   0230 11 AC 00            863 	ld	de,#_wave + 112
                            864 ; genAssign (pointer)
   0233 3E 78               865 	ld	a,#0x78
   0235 12                  866 	ld	(de),a
   0236 13                  867 	inc	de
   0237 3E 00               868 	ld	a,#0x00
   0239 12                  869 	ld	(de),a
                            870 ; genPlus
                            871 ; genPlusIncr
   023A 11 AE 00            872 	ld	de,#_wave + 114
                            873 ; genAssign (pointer)
   023D 3E 78               874 	ld	a,#0x78
   023F 12                  875 	ld	(de),a
   0240 13                  876 	inc	de
   0241 3E 00               877 	ld	a,#0x00
   0243 12                  878 	ld	(de),a
                            879 ; genPlus
                            880 ; genPlusIncr
   0244 11 B0 00            881 	ld	de,#_wave + 116
                            882 ; genAssign (pointer)
   0247 3E 77               883 	ld	a,#0x77
   0249 12                  884 	ld	(de),a
   024A 13                  885 	inc	de
   024B 3E 00               886 	ld	a,#0x00
   024D 12                  887 	ld	(de),a
                            888 ; genPlus
                            889 ; genPlusIncr
   024E 11 B2 00            890 	ld	de,#_wave + 118
                            891 ; genAssign (pointer)
   0251 3E 67               892 	ld	a,#0x67
   0253 12                  893 	ld	(de),a
   0254 13                  894 	inc	de
   0255 3E 00               895 	ld	a,#0x00
   0257 12                  896 	ld	(de),a
                            897 ; genPlus
                            898 ; genPlusIncr
   0258 11 B4 00            899 	ld	de,#_wave + 120
                            900 ; genAssign (pointer)
   025B 3E 66               901 	ld	a,#0x66
   025D 12                  902 	ld	(de),a
   025E 13                  903 	inc	de
   025F 3E 00               904 	ld	a,#0x00
   0261 12                  905 	ld	(de),a
                            906 ; genPlus
                            907 ; genPlusIncr
   0262 11 B6 00            908 	ld	de,#_wave + 122
                            909 ; genAssign (pointer)
   0265 3E 65               910 	ld	a,#0x65
   0267 12                  911 	ld	(de),a
   0268 13                  912 	inc	de
   0269 3E 00               913 	ld	a,#0x00
   026B 12                  914 	ld	(de),a
                            915 ; genPlus
                            916 ; genPlusIncr
   026C 11 B8 00            917 	ld	de,#_wave + 124
                            918 ; genAssign (pointer)
   026F 3E 74               919 	ld	a,#0x74
   0271 12                  920 	ld	(de),a
   0272 13                  921 	inc	de
   0273 3E 00               922 	ld	a,#0x00
   0275 12                  923 	ld	(de),a
                            924 ; genPlus
                            925 ; genPlusIncr
   0276 11 BA 00            926 	ld	de,#_wave + 126
                            927 ; genAssign (pointer)
   0279 3E 70               928 	ld	a,#0x70
   027B 12                  929 	ld	(de),a
   027C 13                  930 	inc	de
   027D 3E 00               931 	ld	a,#0x00
   027F 12                  932 	ld	(de),a
                            933 ; genPlus
                            934 ; genPlusIncr
   0280 11 BC 00            935 	ld	de,#_wave + 128
                            936 ; genAssign (pointer)
   0283 3E 9B               937 	ld	a,#0x9B
   0285 12                  938 	ld	(de),a
   0286 13                  939 	inc	de
   0287 3E 00               940 	ld	a,#0x00
   0289 12                  941 	ld	(de),a
                            942 ; genPlus
                            943 ; genPlusIncr
   028A 11 BE 00            944 	ld	de,#_wave + 130
                            945 ; genAssign (pointer)
   028D 3E DE               946 	ld	a,#0xDE
   028F 12                  947 	ld	(de),a
   0290 13                  948 	inc	de
   0291 3E 00               949 	ld	a,#0x00
   0293 12                  950 	ld	(de),a
                            951 ; genPlus
                            952 ; genPlusIncr
   0294 11 C0 00            953 	ld	de,#_wave + 132
                            954 ; genAssign (pointer)
   0297 3E EF               955 	ld	a,#0xEF
   0299 12                  956 	ld	(de),a
   029A 13                  957 	inc	de
   029B 3E 00               958 	ld	a,#0x00
   029D 12                  959 	ld	(de),a
                            960 ; genPlus
                            961 ; genPlusIncr
   029E 11 C2 00            962 	ld	de,#_wave + 134
                            963 ; genAssign (pointer)
   02A1 3E FF               964 	ld	a,#0xFF
   02A3 12                  965 	ld	(de),a
   02A4 13                  966 	inc	de
   02A5 3E 00               967 	ld	a,#0x00
   02A7 12                  968 	ld	(de),a
                            969 ; genPlus
                            970 ; genPlusIncr
   02A8 11 C4 00            971 	ld	de,#_wave + 136
                            972 ; genAssign (pointer)
   02AB 3E FF               973 	ld	a,#0xFF
   02AD 12                  974 	ld	(de),a
   02AE 13                  975 	inc	de
   02AF 3E 00               976 	ld	a,#0x00
   02B1 12                  977 	ld	(de),a
                            978 ; genPlus
                            979 ; genPlusIncr
   02B2 11 C6 00            980 	ld	de,#_wave + 138
                            981 ; genAssign (pointer)
   02B5 3E FE               982 	ld	a,#0xFE
   02B7 12                  983 	ld	(de),a
   02B8 13                  984 	inc	de
   02B9 3E 00               985 	ld	a,#0x00
   02BB 12                  986 	ld	(de),a
                            987 ; genPlus
                            988 ; genPlusIncr
   02BC 11 C8 00            989 	ld	de,#_wave + 140
                            990 ; genAssign (pointer)
   02BF 3E ED               991 	ld	a,#0xED
   02C1 12                  992 	ld	(de),a
   02C2 13                  993 	inc	de
   02C3 3E 00               994 	ld	a,#0x00
   02C5 12                  995 	ld	(de),a
                            996 ; genPlus
                            997 ; genPlusIncr
   02C6 11 CA 00            998 	ld	de,#_wave + 142
                            999 ; genAssign (pointer)
   02C9 3E B9              1000 	ld	a,#0xB9
   02CB 12                 1001 	ld	(de),a
   02CC 13                 1002 	inc	de
   02CD 3E 00              1003 	ld	a,#0x00
   02CF 12                 1004 	ld	(de),a
                           1005 ; genPlus
                           1006 ; genPlusIncr
   02D0 11 CC 00           1007 	ld	de,#_wave + 144
                           1008 ; genAssign (pointer)
   02D3 3E 64              1009 	ld	a,#0x64
   02D5 12                 1010 	ld	(de),a
   02D6 13                 1011 	inc	de
   02D7 3E 00              1012 	ld	a,#0x00
   02D9 12                 1013 	ld	(de),a
                           1014 ; genPlus
                           1015 ; genPlusIncr
   02DA 11 CE 00           1016 	ld	de,#_wave + 146
                           1017 ; genAssign (pointer)
   02DD 3E 22              1018 	ld	a,#0x22
   02DF 12                 1019 	ld	(de),a
   02E0 13                 1020 	inc	de
   02E1 3E 00              1021 	ld	a,#0x00
   02E3 12                 1022 	ld	(de),a
                           1023 ; genPlus
                           1024 ; genPlusIncr
   02E4 11 D0 00           1025 	ld	de,#_wave + 148
                           1026 ; genAssign (pointer)
   02E7 3E 10              1027 	ld	a,#0x10
   02E9 12                 1028 	ld	(de),a
   02EA 13                 1029 	inc	de
   02EB 3E 00              1030 	ld	a,#0x00
   02ED 12                 1031 	ld	(de),a
                           1032 ; genPlus
                           1033 ; genPlusIncr
   02EE 11 D2 00           1034 	ld	de,#_wave + 150
                           1035 ; genAssign (pointer)
   02F1 3E 00              1036 	ld	a,#0x00
   02F3 12                 1037 	ld	(de),a
   02F4 13                 1038 	inc	de
   02F5 3E 00              1039 	ld	a,#0x00
   02F7 12                 1040 	ld	(de),a
                           1041 ; genPlus
                           1042 ; genPlusIncr
   02F8 11 D4 00           1043 	ld	de,#_wave + 152
                           1044 ; genAssign (pointer)
   02FB 3E 00              1045 	ld	a,#0x00
   02FD 12                 1046 	ld	(de),a
   02FE 13                 1047 	inc	de
   02FF 3E 00              1048 	ld	a,#0x00
   0301 12                 1049 	ld	(de),a
                           1050 ; genPlus
                           1051 ; genPlusIncr
   0302 11 D6 00           1052 	ld	de,#_wave + 154
                           1053 ; genAssign (pointer)
   0305 3E 01              1054 	ld	a,#0x01
   0307 12                 1055 	ld	(de),a
   0308 13                 1056 	inc	de
   0309 3E 00              1057 	ld	a,#0x00
   030B 12                 1058 	ld	(de),a
                           1059 ; genPlus
                           1060 ; genPlusIncr
   030C 11 D8 00           1061 	ld	de,#_wave + 156
                           1062 ; genAssign (pointer)
   030F 3E 22              1063 	ld	a,#0x22
   0311 12                 1064 	ld	(de),a
   0312 13                 1065 	inc	de
   0313 3E 00              1066 	ld	a,#0x00
   0315 12                 1067 	ld	(de),a
                           1068 ; genPlus
                           1069 ; genPlusIncr
   0316 11 DA 00           1070 	ld	de,#_wave + 158
                           1071 ; genAssign (pointer)
   0319 3E 46              1072 	ld	a,#0x46
   031B 12                 1073 	ld	(de),a
   031C 13                 1074 	inc	de
   031D 3E 00              1075 	ld	a,#0x00
   031F 12                 1076 	ld	(de),a
                           1077 ; genPlus
                           1078 ; genPlusIncr
   0320 11 DC 00           1079 	ld	de,#_wave + 160
                           1080 ; genAssign (pointer)
   0323 3E AD              1081 	ld	a,#0xAD
   0325 12                 1082 	ld	(de),a
   0326 13                 1083 	inc	de
   0327 3E 00              1084 	ld	a,#0x00
   0329 12                 1085 	ld	(de),a
                           1086 ; genPlus
                           1087 ; genPlusIncr
   032A 11 DE 00           1088 	ld	de,#_wave + 162
                           1089 ; genAssign (pointer)
   032D 3E FF              1090 	ld	a,#0xFF
   032F 12                 1091 	ld	(de),a
   0330 13                 1092 	inc	de
   0331 3E 00              1093 	ld	a,#0x00
   0333 12                 1094 	ld	(de),a
                           1095 ; genPlus
                           1096 ; genPlusIncr
   0334 11 E0 00           1097 	ld	de,#_wave + 164
                           1098 ; genAssign (pointer)
   0337 3E FF              1099 	ld	a,#0xFF
   0339 12                 1100 	ld	(de),a
   033A 13                 1101 	inc	de
   033B 3E 00              1102 	ld	a,#0x00
   033D 12                 1103 	ld	(de),a
                           1104 ; genPlus
                           1105 ; genPlusIncr
   033E 11 E2 00           1106 	ld	de,#_wave + 166
                           1107 ; genAssign (pointer)
   0341 3E FF              1108 	ld	a,#0xFF
   0343 12                 1109 	ld	(de),a
   0344 13                 1110 	inc	de
   0345 3E 00              1111 	ld	a,#0x00
   0347 12                 1112 	ld	(de),a
                           1113 ; genPlus
                           1114 ; genPlusIncr
   0348 11 E4 00           1115 	ld	de,#_wave + 168
                           1116 ; genAssign (pointer)
   034B 3E FF              1117 	ld	a,#0xFF
   034D 12                 1118 	ld	(de),a
   034E 13                 1119 	inc	de
   034F 3E 00              1120 	ld	a,#0x00
   0351 12                 1121 	ld	(de),a
                           1122 ; genPlus
                           1123 ; genPlusIncr
   0352 11 E6 00           1124 	ld	de,#_wave + 170
                           1125 ; genAssign (pointer)
   0355 3E FF              1126 	ld	a,#0xFF
   0357 12                 1127 	ld	(de),a
   0358 13                 1128 	inc	de
   0359 3E 00              1129 	ld	a,#0x00
   035B 12                 1130 	ld	(de),a
                           1131 ; genPlus
                           1132 ; genPlusIncr
   035C 11 E8 00           1133 	ld	de,#_wave + 172
                           1134 ; genAssign (pointer)
   035F 3E FF              1135 	ld	a,#0xFF
   0361 12                 1136 	ld	(de),a
   0362 13                 1137 	inc	de
   0363 3E 00              1138 	ld	a,#0x00
   0365 12                 1139 	ld	(de),a
                           1140 ; genPlus
                           1141 ; genPlusIncr
   0366 11 EA 00           1142 	ld	de,#_wave + 174
                           1143 ; genAssign (pointer)
   0369 3E DA              1144 	ld	a,#0xDA
   036B 12                 1145 	ld	(de),a
   036C 13                 1146 	inc	de
   036D 3E 00              1147 	ld	a,#0x00
   036F 12                 1148 	ld	(de),a
                           1149 ; genPlus
                           1150 ; genPlusIncr
   0370 11 EC 00           1151 	ld	de,#_wave + 176
                           1152 ; genAssign (pointer)
   0373 3E 52              1153 	ld	a,#0x52
   0375 12                 1154 	ld	(de),a
   0376 13                 1155 	inc	de
   0377 3E 00              1156 	ld	a,#0x00
   0379 12                 1157 	ld	(de),a
                           1158 ; genPlus
                           1159 ; genPlusIncr
   037A 11 EE 00           1160 	ld	de,#_wave + 178
                           1161 ; genAssign (pointer)
   037D 3E 00              1162 	ld	a,#0x00
   037F 12                 1163 	ld	(de),a
   0380 13                 1164 	inc	de
   0381 3E 00              1165 	ld	a,#0x00
   0383 12                 1166 	ld	(de),a
                           1167 ; genPlus
                           1168 ; genPlusIncr
   0384 11 F0 00           1169 	ld	de,#_wave + 180
                           1170 ; genAssign (pointer)
   0387 3E 00              1171 	ld	a,#0x00
   0389 12                 1172 	ld	(de),a
   038A 13                 1173 	inc	de
   038B 3E 00              1174 	ld	a,#0x00
   038D 12                 1175 	ld	(de),a
                           1176 ; genPlus
                           1177 ; genPlusIncr
   038E 11 F2 00           1178 	ld	de,#_wave + 182
                           1179 ; genAssign (pointer)
   0391 3E 00              1180 	ld	a,#0x00
   0393 12                 1181 	ld	(de),a
   0394 13                 1182 	inc	de
   0395 3E 00              1183 	ld	a,#0x00
   0397 12                 1184 	ld	(de),a
                           1185 ; genPlus
                           1186 ; genPlusIncr
   0398 11 F4 00           1187 	ld	de,#_wave + 184
                           1188 ; genAssign (pointer)
   039B 3E 00              1189 	ld	a,#0x00
   039D 12                 1190 	ld	(de),a
   039E 13                 1191 	inc	de
   039F 3E 00              1192 	ld	a,#0x00
   03A1 12                 1193 	ld	(de),a
                           1194 ; genPlus
                           1195 ; genPlusIncr
   03A2 11 F6 00           1196 	ld	de,#_wave + 186
                           1197 ; genAssign (pointer)
   03A5 3E 00              1198 	ld	a,#0x00
   03A7 12                 1199 	ld	(de),a
   03A8 13                 1200 	inc	de
   03A9 3E 00              1201 	ld	a,#0x00
   03AB 12                 1202 	ld	(de),a
                           1203 ; genPlus
                           1204 ; genPlusIncr
   03AC 11 F8 00           1205 	ld	de,#_wave + 188
                           1206 ; genAssign (pointer)
   03AF 3E 00              1207 	ld	a,#0x00
   03B1 12                 1208 	ld	(de),a
   03B2 13                 1209 	inc	de
   03B3 3E 00              1210 	ld	a,#0x00
   03B5 12                 1211 	ld	(de),a
                           1212 ; genPlus
                           1213 ; genPlusIncr
   03B6 11 FA 00           1214 	ld	de,#_wave + 190
                           1215 ; genAssign (pointer)
   03B9 3E 25              1216 	ld	a,#0x25
   03BB 12                 1217 	ld	(de),a
   03BC 13                 1218 	inc	de
   03BD 3E 00              1219 	ld	a,#0x00
   03BF 12                 1220 	ld	(de),a
                           1221 ; genPlus
                           1222 ; genPlusIncr
   03C0 11 FC 00           1223 	ld	de,#_wave + 192
                           1224 ; genAssign (pointer)
   03C3 3E FF              1225 	ld	a,#0xFF
   03C5 12                 1226 	ld	(de),a
   03C6 13                 1227 	inc	de
   03C7 3E 00              1228 	ld	a,#0x00
   03C9 12                 1229 	ld	(de),a
                           1230 ; genPlus
                           1231 ; genPlusIncr
   03CA 11 FE 00           1232 	ld	de,#_wave + 194
                           1233 ; genAssign (pointer)
   03CD 3E FE              1234 	ld	a,#0xFE
   03CF 12                 1235 	ld	(de),a
   03D0 13                 1236 	inc	de
   03D1 3E 00              1237 	ld	a,#0x00
   03D3 12                 1238 	ld	(de),a
                           1239 ; genPlus
                           1240 ; genPlusIncr
   03D4 11 00 01           1241 	ld	de,#_wave + 196
                           1242 ; genAssign (pointer)
   03D7 3E DD              1243 	ld	a,#0xDD
   03D9 12                 1244 	ld	(de),a
   03DA 13                 1245 	inc	de
   03DB 3E 00              1246 	ld	a,#0x00
   03DD 12                 1247 	ld	(de),a
                           1248 ; genPlus
                           1249 ; genPlusIncr
   03DE 11 02 01           1250 	ld	de,#_wave + 198
                           1251 ; genAssign (pointer)
   03E1 3E CC              1252 	ld	a,#0xCC
   03E3 12                 1253 	ld	(de),a
   03E4 13                 1254 	inc	de
   03E5 3E 00              1255 	ld	a,#0x00
   03E7 12                 1256 	ld	(de),a
                           1257 ; genPlus
                           1258 ; genPlusIncr
   03E8 11 04 01           1259 	ld	de,#_wave + 200
                           1260 ; genAssign (pointer)
   03EB 3E BB              1261 	ld	a,#0xBB
   03ED 12                 1262 	ld	(de),a
   03EE 13                 1263 	inc	de
   03EF 3E 00              1264 	ld	a,#0x00
   03F1 12                 1265 	ld	(de),a
                           1266 ; genPlus
                           1267 ; genPlusIncr
   03F2 11 06 01           1268 	ld	de,#_wave + 202
                           1269 ; genAssign (pointer)
   03F5 3E AA              1270 	ld	a,#0xAA
   03F7 12                 1271 	ld	(de),a
   03F8 13                 1272 	inc	de
   03F9 3E 00              1273 	ld	a,#0x00
   03FB 12                 1274 	ld	(de),a
                           1275 ; genPlus
                           1276 ; genPlusIncr
   03FC 11 08 01           1277 	ld	de,#_wave + 204
                           1278 ; genAssign (pointer)
   03FF 3E 99              1279 	ld	a,#0x99
   0401 12                 1280 	ld	(de),a
   0402 13                 1281 	inc	de
   0403 3E 00              1282 	ld	a,#0x00
   0405 12                 1283 	ld	(de),a
                           1284 ; genPlus
                           1285 ; genPlusIncr
   0406 11 0A 01           1286 	ld	de,#_wave + 206
                           1287 ; genAssign (pointer)
   0409 3E 88              1288 	ld	a,#0x88
   040B 12                 1289 	ld	(de),a
   040C 13                 1290 	inc	de
   040D 3E 00              1291 	ld	a,#0x00
   040F 12                 1292 	ld	(de),a
                           1293 ; genPlus
                           1294 ; genPlusIncr
   0410 11 0C 01           1295 	ld	de,#_wave + 208
                           1296 ; genAssign (pointer)
   0413 3E 77              1297 	ld	a,#0x77
   0415 12                 1298 	ld	(de),a
   0416 13                 1299 	inc	de
   0417 3E 00              1300 	ld	a,#0x00
   0419 12                 1301 	ld	(de),a
                           1302 ; genPlus
                           1303 ; genPlusIncr
   041A 11 0E 01           1304 	ld	de,#_wave + 210
                           1305 ; genAssign (pointer)
   041D 3E 66              1306 	ld	a,#0x66
   041F 12                 1307 	ld	(de),a
   0420 13                 1308 	inc	de
   0421 3E 00              1309 	ld	a,#0x00
   0423 12                 1310 	ld	(de),a
                           1311 ; genPlus
                           1312 ; genPlusIncr
   0424 11 10 01           1313 	ld	de,#_wave + 212
                           1314 ; genAssign (pointer)
   0427 3E 55              1315 	ld	a,#0x55
   0429 12                 1316 	ld	(de),a
   042A 13                 1317 	inc	de
   042B 3E 00              1318 	ld	a,#0x00
   042D 12                 1319 	ld	(de),a
                           1320 ; genPlus
                           1321 ; genPlusIncr
   042E 11 12 01           1322 	ld	de,#_wave + 214
                           1323 ; genAssign (pointer)
   0431 3E 44              1324 	ld	a,#0x44
   0433 12                 1325 	ld	(de),a
   0434 13                 1326 	inc	de
   0435 3E 00              1327 	ld	a,#0x00
   0437 12                 1328 	ld	(de),a
                           1329 ; genPlus
                           1330 ; genPlusIncr
   0438 11 14 01           1331 	ld	de,#_wave + 216
                           1332 ; genAssign (pointer)
   043B 3E 33              1333 	ld	a,#0x33
   043D 12                 1334 	ld	(de),a
   043E 13                 1335 	inc	de
   043F 3E 00              1336 	ld	a,#0x00
   0441 12                 1337 	ld	(de),a
                           1338 ; genPlus
                           1339 ; genPlusIncr
   0442 11 16 01           1340 	ld	de,#_wave + 218
                           1341 ; genAssign (pointer)
   0445 3E 22              1342 	ld	a,#0x22
   0447 12                 1343 	ld	(de),a
   0448 13                 1344 	inc	de
   0449 3E 00              1345 	ld	a,#0x00
   044B 12                 1346 	ld	(de),a
                           1347 ; genPlus
                           1348 ; genPlusIncr
   044C 11 18 01           1349 	ld	de,#_wave + 220
                           1350 ; genAssign (pointer)
   044F 3E 10              1351 	ld	a,#0x10
   0451 12                 1352 	ld	(de),a
   0452 13                 1353 	inc	de
   0453 3E 00              1354 	ld	a,#0x00
   0455 12                 1355 	ld	(de),a
                           1356 ; genPlus
                           1357 ; genPlusIncr
   0456 11 1A 01           1358 	ld	de,#_wave + 222
                           1359 ; genAssign (pointer)
   0459 3E 00              1360 	ld	a,#0x00
   045B 12                 1361 	ld	(de),a
   045C 13                 1362 	inc	de
   045D 3E 00              1363 	ld	a,#0x00
   045F 12                 1364 	ld	(de),a
                           1365 ; genPlus
                           1366 ; genPlusIncr
   0460 11 1C 01           1367 	ld	de,#_wave + 224
                           1368 ; genAssign (pointer)
   0463 3E BE              1369 	ld	a,#0xBE
   0465 12                 1370 	ld	(de),a
   0466 13                 1371 	inc	de
   0467 3E 00              1372 	ld	a,#0x00
   0469 12                 1373 	ld	(de),a
                           1374 ; genPlus
                           1375 ; genPlusIncr
   046A 11 1E 01           1376 	ld	de,#_wave + 226
                           1377 ; genAssign (pointer)
   046D 3E EC              1378 	ld	a,#0xEC
   046F 12                 1379 	ld	(de),a
   0470 13                 1380 	inc	de
   0471 3E 00              1381 	ld	a,#0x00
   0473 12                 1382 	ld	(de),a
                           1383 ; genPlus
                           1384 ; genPlusIncr
   0474 11 20 01           1385 	ld	de,#_wave + 228
                           1386 ; genAssign (pointer)
   0477 3E BA              1387 	ld	a,#0xBA
   0479 12                 1388 	ld	(de),a
   047A 13                 1389 	inc	de
   047B 3E 00              1390 	ld	a,#0x00
   047D 12                 1391 	ld	(de),a
                           1392 ; genPlus
                           1393 ; genPlusIncr
   047E 11 22 01           1394 	ld	de,#_wave + 230
                           1395 ; genAssign (pointer)
   0481 3E 98              1396 	ld	a,#0x98
   0483 12                 1397 	ld	(de),a
   0484 13                 1398 	inc	de
   0485 3E 00              1399 	ld	a,#0x00
   0487 12                 1400 	ld	(de),a
                           1401 ; genPlus
                           1402 ; genPlusIncr
   0488 11 24 01           1403 	ld	de,#_wave + 232
                           1404 ; genAssign (pointer)
   048B 3E 76              1405 	ld	a,#0x76
   048D 12                 1406 	ld	(de),a
   048E 13                 1407 	inc	de
   048F 3E 00              1408 	ld	a,#0x00
   0491 12                 1409 	ld	(de),a
                           1410 ; genPlus
                           1411 ; genPlusIncr
   0492 11 26 01           1412 	ld	de,#_wave + 234
                           1413 ; genAssign (pointer)
   0495 3E 54              1414 	ld	a,#0x54
   0497 12                 1415 	ld	(de),a
   0498 13                 1416 	inc	de
   0499 3E 00              1417 	ld	a,#0x00
   049B 12                 1418 	ld	(de),a
                           1419 ; genPlus
                           1420 ; genPlusIncr
   049C 11 28 01           1421 	ld	de,#_wave + 236
                           1422 ; genAssign (pointer)
   049F 3E 31              1423 	ld	a,#0x31
   04A1 12                 1424 	ld	(de),a
   04A2 13                 1425 	inc	de
   04A3 3E 00              1426 	ld	a,#0x00
   04A5 12                 1427 	ld	(de),a
                           1428 ; genPlus
                           1429 ; genPlusIncr
   04A6 11 2A 01           1430 	ld	de,#_wave + 238
                           1431 ; genAssign (pointer)
   04A9 3E 14              1432 	ld	a,#0x14
   04AB 12                 1433 	ld	(de),a
   04AC 13                 1434 	inc	de
   04AD 3E 00              1435 	ld	a,#0x00
   04AF 12                 1436 	ld	(de),a
                           1437 ; genPlus
                           1438 ; genPlusIncr
   04B0 11 2C 01           1439 	ld	de,#_wave + 240
                           1440 ; genAssign (pointer)
   04B3 3E BE              1441 	ld	a,#0xBE
   04B5 12                 1442 	ld	(de),a
   04B6 13                 1443 	inc	de
   04B7 3E 00              1444 	ld	a,#0x00
   04B9 12                 1445 	ld	(de),a
                           1446 ; genPlus
                           1447 ; genPlusIncr
   04BA 11 2E 01           1448 	ld	de,#_wave + 242
                           1449 ; genAssign (pointer)
   04BD 3E EC              1450 	ld	a,#0xEC
   04BF 12                 1451 	ld	(de),a
   04C0 13                 1452 	inc	de
   04C1 3E 00              1453 	ld	a,#0x00
   04C3 12                 1454 	ld	(de),a
                           1455 ; genPlus
                           1456 ; genPlusIncr
   04C4 11 30 01           1457 	ld	de,#_wave + 244
                           1458 ; genAssign (pointer)
   04C7 3E BA              1459 	ld	a,#0xBA
   04C9 12                 1460 	ld	(de),a
   04CA 13                 1461 	inc	de
   04CB 3E 00              1462 	ld	a,#0x00
   04CD 12                 1463 	ld	(de),a
                           1464 ; genPlus
                           1465 ; genPlusIncr
   04CE 11 32 01           1466 	ld	de,#_wave + 246
                           1467 ; genAssign (pointer)
   04D1 3E 98              1468 	ld	a,#0x98
   04D3 12                 1469 	ld	(de),a
   04D4 13                 1470 	inc	de
   04D5 3E 00              1471 	ld	a,#0x00
   04D7 12                 1472 	ld	(de),a
                           1473 ; genPlus
                           1474 ; genPlusIncr
   04D8 11 34 01           1475 	ld	de,#_wave + 248
                           1476 ; genAssign (pointer)
   04DB 3E 76              1477 	ld	a,#0x76
   04DD 12                 1478 	ld	(de),a
   04DE 13                 1479 	inc	de
   04DF 3E 00              1480 	ld	a,#0x00
   04E1 12                 1481 	ld	(de),a
                           1482 ; genPlus
                           1483 ; genPlusIncr
   04E2 11 36 01           1484 	ld	de,#_wave + 250
                           1485 ; genAssign (pointer)
   04E5 3E 54              1486 	ld	a,#0x54
   04E7 12                 1487 	ld	(de),a
   04E8 13                 1488 	inc	de
   04E9 3E 00              1489 	ld	a,#0x00
   04EB 12                 1490 	ld	(de),a
                           1491 ; genPlus
                           1492 ; genPlusIncr
   04EC 11 38 01           1493 	ld	de,#_wave + 252
                           1494 ; genAssign (pointer)
   04EF 3E 31              1495 	ld	a,#0x31
   04F1 12                 1496 	ld	(de),a
   04F2 13                 1497 	inc	de
   04F3 3E 00              1498 	ld	a,#0x00
   04F5 12                 1499 	ld	(de),a
                           1500 ; genPlus
                           1501 ; genPlusIncr
   04F6 11 3A 01           1502 	ld	de,#_wave + 254
                           1503 ; genAssign (pointer)
   04F9 3E 14              1504 	ld	a,#0x14
   04FB 12                 1505 	ld	(de),a
   04FC 13                 1506 	inc	de
   04FD 3E 00              1507 	ld	a,#0x00
   04FF 12                 1508 	ld	(de),a
                           1509 ;	mypaint.c 623
                           1510 ; genAssign (pointer)
   0500 11 3C 01           1511 	ld	de,#_frequencies + 0
   0503 3E 2C              1512 	ld	a,#0x2C
   0505 12                 1513 	ld	(de),a
   0506 13                 1514 	inc	de
   0507 3E 00              1515 	ld	a,#0x00
   0509 12                 1516 	ld	(de),a
                           1517 ; genPlus
                           1518 ; genPlusIncr
   050A 11 3E 01           1519 	ld	de,#_frequencies + 2
                           1520 ; genAssign (pointer)
   050D 3E 9C              1521 	ld	a,#0x9C
   050F 12                 1522 	ld	(de),a
   0510 13                 1523 	inc	de
   0511 3E 00              1524 	ld	a,#0x00
   0513 12                 1525 	ld	(de),a
                           1526 ; genPlus
                           1527 ; genPlusIncr
   0514 11 40 01           1528 	ld	de,#_frequencies + 4
                           1529 ; genAssign (pointer)
   0517 3E 06              1530 	ld	a,#0x06
   0519 12                 1531 	ld	(de),a
   051A 13                 1532 	inc	de
   051B 3E 01              1533 	ld	a,#0x01
   051D 12                 1534 	ld	(de),a
                           1535 ; genPlus
                           1536 ; genPlusIncr
   051E 11 42 01           1537 	ld	de,#_frequencies + 6
                           1538 ; genAssign (pointer)
   0521 3E 6B              1539 	ld	a,#0x6B
   0523 12                 1540 	ld	(de),a
   0524 13                 1541 	inc	de
   0525 3E 01              1542 	ld	a,#0x01
   0527 12                 1543 	ld	(de),a
                           1544 ; genPlus
                           1545 ; genPlusIncr
   0528 11 44 01           1546 	ld	de,#_frequencies + 8
                           1547 ; genAssign (pointer)
   052B 3E C9              1548 	ld	a,#0xC9
   052D 12                 1549 	ld	(de),a
   052E 13                 1550 	inc	de
   052F 3E 01              1551 	ld	a,#0x01
   0531 12                 1552 	ld	(de),a
                           1553 ; genPlus
                           1554 ; genPlusIncr
   0532 11 46 01           1555 	ld	de,#_frequencies + 10
                           1556 ; genAssign (pointer)
   0535 3E 23              1557 	ld	a,#0x23
   0537 12                 1558 	ld	(de),a
   0538 13                 1559 	inc	de
   0539 3E 02              1560 	ld	a,#0x02
   053B 12                 1561 	ld	(de),a
                           1562 ; genPlus
                           1563 ; genPlusIncr
   053C 11 48 01           1564 	ld	de,#_frequencies + 12
                           1565 ; genAssign (pointer)
   053F 3E 77              1566 	ld	a,#0x77
   0541 12                 1567 	ld	(de),a
   0542 13                 1568 	inc	de
   0543 3E 02              1569 	ld	a,#0x02
   0545 12                 1570 	ld	(de),a
                           1571 ; genPlus
                           1572 ; genPlusIncr
   0546 11 4A 01           1573 	ld	de,#_frequencies + 14
                           1574 ; genAssign (pointer)
   0549 3E C6              1575 	ld	a,#0xC6
   054B 12                 1576 	ld	(de),a
   054C 13                 1577 	inc	de
   054D 3E 02              1578 	ld	a,#0x02
   054F 12                 1579 	ld	(de),a
                           1580 ; genPlus
                           1581 ; genPlusIncr
   0550 11 4C 01           1582 	ld	de,#_frequencies + 16
                           1583 ; genAssign (pointer)
   0553 3E 12              1584 	ld	a,#0x12
   0555 12                 1585 	ld	(de),a
   0556 13                 1586 	inc	de
   0557 3E 03              1587 	ld	a,#0x03
   0559 12                 1588 	ld	(de),a
                           1589 ; genPlus
                           1590 ; genPlusIncr
   055A 11 4E 01           1591 	ld	de,#_frequencies + 18
                           1592 ; genAssign (pointer)
   055D 3E 56              1593 	ld	a,#0x56
   055F 12                 1594 	ld	(de),a
   0560 13                 1595 	inc	de
   0561 3E 03              1596 	ld	a,#0x03
   0563 12                 1597 	ld	(de),a
                           1598 ; genPlus
                           1599 ; genPlusIncr
   0564 11 50 01           1600 	ld	de,#_frequencies + 20
                           1601 ; genAssign (pointer)
   0567 3E 9B              1602 	ld	a,#0x9B
   0569 12                 1603 	ld	(de),a
   056A 13                 1604 	inc	de
   056B 3E 03              1605 	ld	a,#0x03
   056D 12                 1606 	ld	(de),a
                           1607 ; genPlus
                           1608 ; genPlusIncr
   056E 11 52 01           1609 	ld	de,#_frequencies + 22
                           1610 ; genAssign (pointer)
   0571 3E DA              1611 	ld	a,#0xDA
   0573 12                 1612 	ld	(de),a
   0574 13                 1613 	inc	de
   0575 3E 03              1614 	ld	a,#0x03
   0577 12                 1615 	ld	(de),a
                           1616 ; genPlus
                           1617 ; genPlusIncr
   0578 11 54 01           1618 	ld	de,#_frequencies + 24
                           1619 ; genAssign (pointer)
   057B 3E 16              1620 	ld	a,#0x16
   057D 12                 1621 	ld	(de),a
   057E 13                 1622 	inc	de
   057F 3E 04              1623 	ld	a,#0x04
   0581 12                 1624 	ld	(de),a
                           1625 ; genPlus
                           1626 ; genPlusIncr
   0582 11 56 01           1627 	ld	de,#_frequencies + 26
                           1628 ; genAssign (pointer)
   0585 3E 4E              1629 	ld	a,#0x4E
   0587 12                 1630 	ld	(de),a
   0588 13                 1631 	inc	de
   0589 3E 04              1632 	ld	a,#0x04
   058B 12                 1633 	ld	(de),a
                           1634 ; genPlus
                           1635 ; genPlusIncr
   058C 11 58 01           1636 	ld	de,#_frequencies + 28
                           1637 ; genAssign (pointer)
   058F 3E 83              1638 	ld	a,#0x83
   0591 12                 1639 	ld	(de),a
   0592 13                 1640 	inc	de
   0593 3E 04              1641 	ld	a,#0x04
   0595 12                 1642 	ld	(de),a
                           1643 ; genPlus
                           1644 ; genPlusIncr
   0596 11 5A 01           1645 	ld	de,#_frequencies + 30
                           1646 ; genAssign (pointer)
   0599 3E B5              1647 	ld	a,#0xB5
   059B 12                 1648 	ld	(de),a
   059C 13                 1649 	inc	de
   059D 3E 04              1650 	ld	a,#0x04
   059F 12                 1651 	ld	(de),a
                           1652 ; genPlus
                           1653 ; genPlusIncr
   05A0 11 5C 01           1654 	ld	de,#_frequencies + 32
                           1655 ; genAssign (pointer)
   05A3 3E E5              1656 	ld	a,#0xE5
   05A5 12                 1657 	ld	(de),a
   05A6 13                 1658 	inc	de
   05A7 3E 04              1659 	ld	a,#0x04
   05A9 12                 1660 	ld	(de),a
                           1661 ; genPlus
                           1662 ; genPlusIncr
   05AA 11 5E 01           1663 	ld	de,#_frequencies + 34
                           1664 ; genAssign (pointer)
   05AD 3E 11              1665 	ld	a,#0x11
   05AF 12                 1666 	ld	(de),a
   05B0 13                 1667 	inc	de
   05B1 3E 05              1668 	ld	a,#0x05
   05B3 12                 1669 	ld	(de),a
                           1670 ; genPlus
                           1671 ; genPlusIncr
   05B4 11 60 01           1672 	ld	de,#_frequencies + 36
                           1673 ; genAssign (pointer)
   05B7 3E 3B              1674 	ld	a,#0x3B
   05B9 12                 1675 	ld	(de),a
   05BA 13                 1676 	inc	de
   05BB 3E 05              1677 	ld	a,#0x05
   05BD 12                 1678 	ld	(de),a
                           1679 ; genPlus
                           1680 ; genPlusIncr
   05BE 11 62 01           1681 	ld	de,#_frequencies + 38
                           1682 ; genAssign (pointer)
   05C1 3E 63              1683 	ld	a,#0x63
   05C3 12                 1684 	ld	(de),a
   05C4 13                 1685 	inc	de
   05C5 3E 05              1686 	ld	a,#0x05
   05C7 12                 1687 	ld	(de),a
                           1688 ; genPlus
                           1689 ; genPlusIncr
   05C8 11 64 01           1690 	ld	de,#_frequencies + 40
                           1691 ; genAssign (pointer)
   05CB 3E 89              1692 	ld	a,#0x89
   05CD 12                 1693 	ld	(de),a
   05CE 13                 1694 	inc	de
   05CF 3E 05              1695 	ld	a,#0x05
   05D1 12                 1696 	ld	(de),a
                           1697 ; genPlus
                           1698 ; genPlusIncr
   05D2 11 66 01           1699 	ld	de,#_frequencies + 42
                           1700 ; genAssign (pointer)
   05D5 3E AC              1701 	ld	a,#0xAC
   05D7 12                 1702 	ld	(de),a
   05D8 13                 1703 	inc	de
   05D9 3E 05              1704 	ld	a,#0x05
   05DB 12                 1705 	ld	(de),a
                           1706 ; genPlus
                           1707 ; genPlusIncr
   05DC 11 68 01           1708 	ld	de,#_frequencies + 44
                           1709 ; genAssign (pointer)
   05DF 3E CE              1710 	ld	a,#0xCE
   05E1 12                 1711 	ld	(de),a
   05E2 13                 1712 	inc	de
   05E3 3E 05              1713 	ld	a,#0x05
   05E5 12                 1714 	ld	(de),a
                           1715 ; genPlus
                           1716 ; genPlusIncr
   05E6 11 6A 01           1717 	ld	de,#_frequencies + 46
                           1718 ; genAssign (pointer)
   05E9 3E ED              1719 	ld	a,#0xED
   05EB 12                 1720 	ld	(de),a
   05EC 13                 1721 	inc	de
   05ED 3E 05              1722 	ld	a,#0x05
   05EF 12                 1723 	ld	(de),a
                           1724 ; genPlus
                           1725 ; genPlusIncr
   05F0 11 6C 01           1726 	ld	de,#_frequencies + 48
                           1727 ; genAssign (pointer)
   05F3 3E 0A              1728 	ld	a,#0x0A
   05F5 12                 1729 	ld	(de),a
   05F6 13                 1730 	inc	de
   05F7 3E 06              1731 	ld	a,#0x06
   05F9 12                 1732 	ld	(de),a
                           1733 ; genPlus
                           1734 ; genPlusIncr
   05FA 11 6E 01           1735 	ld	de,#_frequencies + 50
                           1736 ; genAssign (pointer)
   05FD 3E 27              1737 	ld	a,#0x27
   05FF 12                 1738 	ld	(de),a
   0600 13                 1739 	inc	de
   0601 3E 06              1740 	ld	a,#0x06
   0603 12                 1741 	ld	(de),a
                           1742 ; genPlus
                           1743 ; genPlusIncr
   0604 11 70 01           1744 	ld	de,#_frequencies + 52
                           1745 ; genAssign (pointer)
   0607 3E 42              1746 	ld	a,#0x42
   0609 12                 1747 	ld	(de),a
   060A 13                 1748 	inc	de
   060B 3E 06              1749 	ld	a,#0x06
   060D 12                 1750 	ld	(de),a
                           1751 ; genPlus
                           1752 ; genPlusIncr
   060E 11 72 01           1753 	ld	de,#_frequencies + 54
                           1754 ; genAssign (pointer)
   0611 3E 5B              1755 	ld	a,#0x5B
   0613 12                 1756 	ld	(de),a
   0614 13                 1757 	inc	de
   0615 3E 06              1758 	ld	a,#0x06
   0617 12                 1759 	ld	(de),a
                           1760 ; genPlus
                           1761 ; genPlusIncr
   0618 11 74 01           1762 	ld	de,#_frequencies + 56
                           1763 ; genAssign (pointer)
   061B 3E 72              1764 	ld	a,#0x72
   061D 12                 1765 	ld	(de),a
   061E 13                 1766 	inc	de
   061F 3E 06              1767 	ld	a,#0x06
   0621 12                 1768 	ld	(de),a
                           1769 ; genPlus
                           1770 ; genPlusIncr
   0622 11 76 01           1771 	ld	de,#_frequencies + 58
                           1772 ; genAssign (pointer)
   0625 3E 89              1773 	ld	a,#0x89
   0627 12                 1774 	ld	(de),a
   0628 13                 1775 	inc	de
   0629 3E 06              1776 	ld	a,#0x06
   062B 12                 1777 	ld	(de),a
                           1778 ; genPlus
                           1779 ; genPlusIncr
   062C 11 78 01           1780 	ld	de,#_frequencies + 60
                           1781 ; genAssign (pointer)
   062F 3E 9E              1782 	ld	a,#0x9E
   0631 12                 1783 	ld	(de),a
   0632 13                 1784 	inc	de
   0633 3E 06              1785 	ld	a,#0x06
   0635 12                 1786 	ld	(de),a
                           1787 ; genPlus
                           1788 ; genPlusIncr
   0636 11 7A 01           1789 	ld	de,#_frequencies + 62
                           1790 ; genAssign (pointer)
   0639 3E B2              1791 	ld	a,#0xB2
   063B 12                 1792 	ld	(de),a
   063C 13                 1793 	inc	de
   063D 3E 06              1794 	ld	a,#0x06
   063F 12                 1795 	ld	(de),a
                           1796 ; genPlus
                           1797 ; genPlusIncr
   0640 11 7C 01           1798 	ld	de,#_frequencies + 64
                           1799 ; genAssign (pointer)
   0643 3E C4              1800 	ld	a,#0xC4
   0645 12                 1801 	ld	(de),a
   0646 13                 1802 	inc	de
   0647 3E 06              1803 	ld	a,#0x06
   0649 12                 1804 	ld	(de),a
                           1805 ; genPlus
                           1806 ; genPlusIncr
   064A 11 7E 01           1807 	ld	de,#_frequencies + 66
                           1808 ; genAssign (pointer)
   064D 3E D6              1809 	ld	a,#0xD6
   064F 12                 1810 	ld	(de),a
   0650 13                 1811 	inc	de
   0651 3E 06              1812 	ld	a,#0x06
   0653 12                 1813 	ld	(de),a
                           1814 ; genPlus
                           1815 ; genPlusIncr
   0654 11 80 01           1816 	ld	de,#_frequencies + 68
                           1817 ; genAssign (pointer)
   0657 3E E7              1818 	ld	a,#0xE7
   0659 12                 1819 	ld	(de),a
   065A 13                 1820 	inc	de
   065B 3E 06              1821 	ld	a,#0x06
   065D 12                 1822 	ld	(de),a
                           1823 ; genPlus
                           1824 ; genPlusIncr
   065E 11 82 01           1825 	ld	de,#_frequencies + 70
                           1826 ; genAssign (pointer)
   0661 3E F7              1827 	ld	a,#0xF7
   0663 12                 1828 	ld	(de),a
   0664 13                 1829 	inc	de
   0665 3E 06              1830 	ld	a,#0x06
   0667 12                 1831 	ld	(de),a
                           1832 ; genPlus
                           1833 ; genPlusIncr
   0668 11 84 01           1834 	ld	de,#_frequencies + 72
                           1835 ; genAssign (pointer)
   066B 3E 06              1836 	ld	a,#0x06
   066D 12                 1837 	ld	(de),a
   066E 13                 1838 	inc	de
   066F 3E 07              1839 	ld	a,#0x07
   0671 12                 1840 	ld	(de),a
                           1841 ; genPlus
                           1842 ; genPlusIncr
   0672 11 86 01           1843 	ld	de,#_frequencies + 74
                           1844 ; genAssign (pointer)
   0675 3E 14              1845 	ld	a,#0x14
   0677 12                 1846 	ld	(de),a
   0678 13                 1847 	inc	de
   0679 3E 07              1848 	ld	a,#0x07
   067B 12                 1849 	ld	(de),a
                           1850 ; genPlus
                           1851 ; genPlusIncr
   067C 11 88 01           1852 	ld	de,#_frequencies + 76
                           1853 ; genAssign (pointer)
   067F 3E 21              1854 	ld	a,#0x21
   0681 12                 1855 	ld	(de),a
   0682 13                 1856 	inc	de
   0683 3E 07              1857 	ld	a,#0x07
   0685 12                 1858 	ld	(de),a
                           1859 ; genPlus
                           1860 ; genPlusIncr
   0686 11 8A 01           1861 	ld	de,#_frequencies + 78
                           1862 ; genAssign (pointer)
   0689 3E 2D              1863 	ld	a,#0x2D
   068B 12                 1864 	ld	(de),a
   068C 13                 1865 	inc	de
   068D 3E 07              1866 	ld	a,#0x07
   068F 12                 1867 	ld	(de),a
                           1868 ; genPlus
                           1869 ; genPlusIncr
   0690 11 8C 01           1870 	ld	de,#_frequencies + 80
                           1871 ; genAssign (pointer)
   0693 3E 39              1872 	ld	a,#0x39
   0695 12                 1873 	ld	(de),a
   0696 13                 1874 	inc	de
   0697 3E 07              1875 	ld	a,#0x07
   0699 12                 1876 	ld	(de),a
                           1877 ; genPlus
                           1878 ; genPlusIncr
   069A 11 8E 01           1879 	ld	de,#_frequencies + 82
                           1880 ; genAssign (pointer)
   069D 3E 44              1881 	ld	a,#0x44
   069F 12                 1882 	ld	(de),a
   06A0 13                 1883 	inc	de
   06A1 3E 07              1884 	ld	a,#0x07
   06A3 12                 1885 	ld	(de),a
                           1886 ; genPlus
                           1887 ; genPlusIncr
   06A4 11 90 01           1888 	ld	de,#_frequencies + 84
                           1889 ; genAssign (pointer)
   06A7 3E 4F              1890 	ld	a,#0x4F
   06A9 12                 1891 	ld	(de),a
   06AA 13                 1892 	inc	de
   06AB 3E 07              1893 	ld	a,#0x07
   06AD 12                 1894 	ld	(de),a
                           1895 ; genPlus
                           1896 ; genPlusIncr
   06AE 11 92 01           1897 	ld	de,#_frequencies + 86
                           1898 ; genAssign (pointer)
   06B1 3E 59              1899 	ld	a,#0x59
   06B3 12                 1900 	ld	(de),a
   06B4 13                 1901 	inc	de
   06B5 3E 07              1902 	ld	a,#0x07
   06B7 12                 1903 	ld	(de),a
                           1904 ; genPlus
                           1905 ; genPlusIncr
   06B8 11 94 01           1906 	ld	de,#_frequencies + 88
                           1907 ; genAssign (pointer)
   06BB 3E 62              1908 	ld	a,#0x62
   06BD 12                 1909 	ld	(de),a
   06BE 13                 1910 	inc	de
   06BF 3E 07              1911 	ld	a,#0x07
   06C1 12                 1912 	ld	(de),a
                           1913 ; genPlus
                           1914 ; genPlusIncr
   06C2 11 96 01           1915 	ld	de,#_frequencies + 90
                           1916 ; genAssign (pointer)
   06C5 3E 6B              1917 	ld	a,#0x6B
   06C7 12                 1918 	ld	(de),a
   06C8 13                 1919 	inc	de
   06C9 3E 07              1920 	ld	a,#0x07
   06CB 12                 1921 	ld	(de),a
                           1922 ; genPlus
                           1923 ; genPlusIncr
   06CC 11 98 01           1924 	ld	de,#_frequencies + 92
                           1925 ; genAssign (pointer)
   06CF 3E 73              1926 	ld	a,#0x73
   06D1 12                 1927 	ld	(de),a
   06D2 13                 1928 	inc	de
   06D3 3E 07              1929 	ld	a,#0x07
   06D5 12                 1930 	ld	(de),a
                           1931 ; genPlus
                           1932 ; genPlusIncr
   06D6 11 9A 01           1933 	ld	de,#_frequencies + 94
                           1934 ; genAssign (pointer)
   06D9 3E 7B              1935 	ld	a,#0x7B
   06DB 12                 1936 	ld	(de),a
   06DC 13                 1937 	inc	de
   06DD 3E 07              1938 	ld	a,#0x07
   06DF 12                 1939 	ld	(de),a
                           1940 ; genPlus
                           1941 ; genPlusIncr
   06E0 11 9C 01           1942 	ld	de,#_frequencies + 96
                           1943 ; genAssign (pointer)
   06E3 3E 83              1944 	ld	a,#0x83
   06E5 12                 1945 	ld	(de),a
   06E6 13                 1946 	inc	de
   06E7 3E 07              1947 	ld	a,#0x07
   06E9 12                 1948 	ld	(de),a
                           1949 ; genPlus
                           1950 ; genPlusIncr
   06EA 11 9E 01           1951 	ld	de,#_frequencies + 98
                           1952 ; genAssign (pointer)
   06ED 3E 8A              1953 	ld	a,#0x8A
   06EF 12                 1954 	ld	(de),a
   06F0 13                 1955 	inc	de
   06F1 3E 07              1956 	ld	a,#0x07
   06F3 12                 1957 	ld	(de),a
                           1958 ; genPlus
                           1959 ; genPlusIncr
   06F4 11 A0 01           1960 	ld	de,#_frequencies + 100
                           1961 ; genAssign (pointer)
   06F7 3E 90              1962 	ld	a,#0x90
   06F9 12                 1963 	ld	(de),a
   06FA 13                 1964 	inc	de
   06FB 3E 07              1965 	ld	a,#0x07
   06FD 12                 1966 	ld	(de),a
                           1967 ; genPlus
                           1968 ; genPlusIncr
   06FE 11 A2 01           1969 	ld	de,#_frequencies + 102
                           1970 ; genAssign (pointer)
   0701 3E 97              1971 	ld	a,#0x97
   0703 12                 1972 	ld	(de),a
   0704 13                 1973 	inc	de
   0705 3E 07              1974 	ld	a,#0x07
   0707 12                 1975 	ld	(de),a
                           1976 ; genPlus
                           1977 ; genPlusIncr
   0708 11 A4 01           1978 	ld	de,#_frequencies + 104
                           1979 ; genAssign (pointer)
   070B 3E 9D              1980 	ld	a,#0x9D
   070D 12                 1981 	ld	(de),a
   070E 13                 1982 	inc	de
   070F 3E 07              1983 	ld	a,#0x07
   0711 12                 1984 	ld	(de),a
                           1985 ; genPlus
                           1986 ; genPlusIncr
   0712 11 A6 01           1987 	ld	de,#_frequencies + 106
                           1988 ; genAssign (pointer)
   0715 3E A2              1989 	ld	a,#0xA2
   0717 12                 1990 	ld	(de),a
   0718 13                 1991 	inc	de
   0719 3E 07              1992 	ld	a,#0x07
   071B 12                 1993 	ld	(de),a
                           1994 ; genPlus
                           1995 ; genPlusIncr
   071C 11 A8 01           1996 	ld	de,#_frequencies + 108
                           1997 ; genAssign (pointer)
   071F 3E A7              1998 	ld	a,#0xA7
   0721 12                 1999 	ld	(de),a
   0722 13                 2000 	inc	de
   0723 3E 07              2001 	ld	a,#0x07
   0725 12                 2002 	ld	(de),a
                           2003 ; genPlus
                           2004 ; genPlusIncr
   0726 11 AA 01           2005 	ld	de,#_frequencies + 110
                           2006 ; genAssign (pointer)
   0729 3E AC              2007 	ld	a,#0xAC
   072B 12                 2008 	ld	(de),a
   072C 13                 2009 	inc	de
   072D 3E 07              2010 	ld	a,#0x07
   072F 12                 2011 	ld	(de),a
                           2012 ; genPlus
                           2013 ; genPlusIncr
   0730 11 AC 01           2014 	ld	de,#_frequencies + 112
                           2015 ; genAssign (pointer)
   0733 3E B1              2016 	ld	a,#0xB1
   0735 12                 2017 	ld	(de),a
   0736 13                 2018 	inc	de
   0737 3E 07              2019 	ld	a,#0x07
   0739 12                 2020 	ld	(de),a
                           2021 ; genPlus
                           2022 ; genPlusIncr
   073A 11 AE 01           2023 	ld	de,#_frequencies + 114
                           2024 ; genAssign (pointer)
   073D 3E B6              2025 	ld	a,#0xB6
   073F 12                 2026 	ld	(de),a
   0740 13                 2027 	inc	de
   0741 3E 07              2028 	ld	a,#0x07
   0743 12                 2029 	ld	(de),a
                           2030 ; genPlus
                           2031 ; genPlusIncr
   0744 11 B0 01           2032 	ld	de,#_frequencies + 116
                           2033 ; genAssign (pointer)
   0747 3E BA              2034 	ld	a,#0xBA
   0749 12                 2035 	ld	(de),a
   074A 13                 2036 	inc	de
   074B 3E 07              2037 	ld	a,#0x07
   074D 12                 2038 	ld	(de),a
                           2039 ; genPlus
                           2040 ; genPlusIncr
   074E 11 B2 01           2041 	ld	de,#_frequencies + 118
                           2042 ; genAssign (pointer)
   0751 3E BE              2043 	ld	a,#0xBE
   0753 12                 2044 	ld	(de),a
   0754 13                 2045 	inc	de
   0755 3E 07              2046 	ld	a,#0x07
   0757 12                 2047 	ld	(de),a
                           2048 ; genPlus
                           2049 ; genPlusIncr
   0758 11 B4 01           2050 	ld	de,#_frequencies + 120
                           2051 ; genAssign (pointer)
   075B 3E C1              2052 	ld	a,#0xC1
   075D 12                 2053 	ld	(de),a
   075E 13                 2054 	inc	de
   075F 3E 07              2055 	ld	a,#0x07
   0761 12                 2056 	ld	(de),a
                           2057 ; genPlus
                           2058 ; genPlusIncr
   0762 11 B6 01           2059 	ld	de,#_frequencies + 122
                           2060 ; genAssign (pointer)
   0765 3E C4              2061 	ld	a,#0xC4
   0767 12                 2062 	ld	(de),a
   0768 13                 2063 	inc	de
   0769 3E 07              2064 	ld	a,#0x07
   076B 12                 2065 	ld	(de),a
                           2066 ; genPlus
                           2067 ; genPlusIncr
   076C 11 B8 01           2068 	ld	de,#_frequencies + 124
                           2069 ; genAssign (pointer)
   076F 3E C8              2070 	ld	a,#0xC8
   0771 12                 2071 	ld	(de),a
   0772 13                 2072 	inc	de
   0773 3E 07              2073 	ld	a,#0x07
   0775 12                 2074 	ld	(de),a
                           2075 ; genPlus
                           2076 ; genPlusIncr
   0776 11 BA 01           2077 	ld	de,#_frequencies + 126
                           2078 ; genAssign (pointer)
   0779 3E CB              2079 	ld	a,#0xCB
   077B 12                 2080 	ld	(de),a
   077C 13                 2081 	inc	de
   077D 3E 07              2082 	ld	a,#0x07
   077F 12                 2083 	ld	(de),a
                           2084 ; genPlus
                           2085 ; genPlusIncr
   0780 11 BC 01           2086 	ld	de,#_frequencies + 128
                           2087 ; genAssign (pointer)
   0783 3E CE              2088 	ld	a,#0xCE
   0785 12                 2089 	ld	(de),a
   0786 13                 2090 	inc	de
   0787 3E 07              2091 	ld	a,#0x07
   0789 12                 2092 	ld	(de),a
                           2093 ; genPlus
                           2094 ; genPlusIncr
   078A 11 BE 01           2095 	ld	de,#_frequencies + 130
                           2096 ; genAssign (pointer)
   078D 3E D1              2097 	ld	a,#0xD1
   078F 12                 2098 	ld	(de),a
   0790 13                 2099 	inc	de
   0791 3E 07              2100 	ld	a,#0x07
   0793 12                 2101 	ld	(de),a
                           2102 ; genPlus
                           2103 ; genPlusIncr
   0794 11 C0 01           2104 	ld	de,#_frequencies + 132
                           2105 ; genAssign (pointer)
   0797 3E D4              2106 	ld	a,#0xD4
   0799 12                 2107 	ld	(de),a
   079A 13                 2108 	inc	de
   079B 3E 07              2109 	ld	a,#0x07
   079D 12                 2110 	ld	(de),a
                           2111 ; genPlus
                           2112 ; genPlusIncr
   079E 11 C2 01           2113 	ld	de,#_frequencies + 134
                           2114 ; genAssign (pointer)
   07A1 3E D6              2115 	ld	a,#0xD6
   07A3 12                 2116 	ld	(de),a
   07A4 13                 2117 	inc	de
   07A5 3E 07              2118 	ld	a,#0x07
   07A7 12                 2119 	ld	(de),a
                           2120 ; genPlus
                           2121 ; genPlusIncr
   07A8 11 C4 01           2122 	ld	de,#_frequencies + 136
                           2123 ; genAssign (pointer)
   07AB 3E D9              2124 	ld	a,#0xD9
   07AD 12                 2125 	ld	(de),a
   07AE 13                 2126 	inc	de
   07AF 3E 07              2127 	ld	a,#0x07
   07B1 12                 2128 	ld	(de),a
                           2129 ; genPlus
                           2130 ; genPlusIncr
   07B2 11 C6 01           2131 	ld	de,#_frequencies + 138
                           2132 ; genAssign (pointer)
   07B5 3E DB              2133 	ld	a,#0xDB
   07B7 12                 2134 	ld	(de),a
   07B8 13                 2135 	inc	de
   07B9 3E 07              2136 	ld	a,#0x07
   07BB 12                 2137 	ld	(de),a
                           2138 ; genPlus
                           2139 ; genPlusIncr
   07BC 11 C8 01           2140 	ld	de,#_frequencies + 140
                           2141 ; genAssign (pointer)
   07BF 3E DD              2142 	ld	a,#0xDD
   07C1 12                 2143 	ld	(de),a
   07C2 13                 2144 	inc	de
   07C3 3E 07              2145 	ld	a,#0x07
   07C5 12                 2146 	ld	(de),a
                           2147 ; genPlus
                           2148 ; genPlusIncr
   07C6 11 CA 01           2149 	ld	de,#_frequencies + 142
                           2150 ; genAssign (pointer)
   07C9 3E DF              2151 	ld	a,#0xDF
   07CB 12                 2152 	ld	(de),a
   07CC 13                 2153 	inc	de
   07CD 3E 07              2154 	ld	a,#0x07
   07CF 12                 2155 	ld	(de),a
                           2156 ;--------------------------------------------------------
                           2157 ; code
                           2158 ;--------------------------------------------------------
                           2159 	.area _CODE
                           2160 ;	songs_def.c 32
                           2161 ; genLabel
                           2162 ; genFunction
                           2163 ;	---------------------------------
                           2164 ; Function patern_definition
                           2165 ; ---------------------------------
   0000                    2166 ___patern_definition_start:
   0000                    2167 _patern_definition:
   0000 C5                 2168 	push	bc
                           2169 ;	songs_def.c 34
                           2170 ; genCmpEq
                           2171 ; AOP_HL for _song_nbr
   0001 21 04 00           2172 	ld	hl,#_song_nbr + 0
   0004 7E                 2173 	ld	a,(hl)
   0005 21 05 00           2174 	ld	hl,#_song_nbr + 1
   0008 B6                 2175 	or	a,(hl)
   0009 C2 0E 00           2176 	jp	nz,00133$
   000C 18 03              2177 	jr	00134$
   000E                    2178 00133$:
   000E C3 34 01           2179 	jp	00121$
   0011                    2180 00134$:
                           2181 ;	songs_def.c 35
                           2182 ; genCmpEq
                           2183 ; AOP_HL for _patern
   0011 21 00 00           2184 	ld	hl,#_patern + 0
   0014 7E                 2185 	ld	a,(hl)
   0015 21 01 00           2186 	ld	hl,#_patern + 1
   0018 B6                 2187 	or	a,(hl)
   0019 C2 1E 00           2188 	jp	nz,00135$
   001C 18 03              2189 	jr	00136$
   001E                    2190 00135$:
   001E C3 2C 00           2191 	jp	00102$
   0021                    2192 00136$:
                           2193 ; genAddrOf
                           2194 ; AOP_HL for _data_song_ptr
   0021 11 00 00           2195 	ld	de,#_data_song_fullos0
   0024 21 06 00           2196 	ld	hl,#_data_song_ptr + 0
   0027 73                 2197 	ld	(hl),e
   0028 21 07 00           2198 	ld	hl,#_data_song_ptr + 1
   002B 72                 2199 	ld	(hl),d
                           2200 ; genLabel
   002C                    2201 00102$:
                           2202 ;	songs_def.c 36
                           2203 ; genCmpEq
                           2204 ; AOP_HL for _patern
   002C 21 00 00           2205 	ld	hl,#_patern + 0
   002F 7E                 2206 	ld	a,(hl) ; 2
   0030 FE 01              2207 	cp	a,#0x01
   0032 C2 3F 00           2208 	jp	nz,00137$
   0035 21 01 00           2209 	ld	hl,#_patern + 1
   0038 7E                 2210 	ld	a,(hl) ; 2
                           2211 ; Rule 3
   0039 B7                 2212 	or	a,a
   003A C2 3F 00           2213 	jp	nz,00137$
   003D 18 03              2214 	jr	00138$
   003F                    2215 00137$:
   003F C3 4D 00           2216 	jp	00104$
   0042                    2217 00138$:
                           2218 ; genAddrOf
                           2219 ; AOP_HL for _data_song_ptr
   0042 11 00 00           2220 	ld	de,#_data_song_fullos1
   0045 21 06 00           2221 	ld	hl,#_data_song_ptr + 0
   0048 73                 2222 	ld	(hl),e
   0049 21 07 00           2223 	ld	hl,#_data_song_ptr + 1
   004C 72                 2224 	ld	(hl),d
                           2225 ; genLabel
   004D                    2226 00104$:
                           2227 ;	songs_def.c 37
                           2228 ; genCmpEq
                           2229 ; AOP_HL for _patern
   004D 21 00 00           2230 	ld	hl,#_patern + 0
   0050 7E                 2231 	ld	a,(hl) ; 2
   0051 FE 02              2232 	cp	a,#0x02
   0053 C2 60 00           2233 	jp	nz,00139$
   0056 21 01 00           2234 	ld	hl,#_patern + 1
   0059 7E                 2235 	ld	a,(hl) ; 2
                           2236 ; Rule 3
   005A B7                 2237 	or	a,a
   005B C2 60 00           2238 	jp	nz,00139$
   005E 18 03              2239 	jr	00140$
   0060                    2240 00139$:
   0060 C3 6E 00           2241 	jp	00106$
   0063                    2242 00140$:
                           2243 ; genAddrOf
                           2244 ; AOP_HL for _data_song_ptr
   0063 11 00 00           2245 	ld	de,#_data_song_fullos2
   0066 21 06 00           2246 	ld	hl,#_data_song_ptr + 0
   0069 73                 2247 	ld	(hl),e
   006A 21 07 00           2248 	ld	hl,#_data_song_ptr + 1
   006D 72                 2249 	ld	(hl),d
                           2250 ; genLabel
   006E                    2251 00106$:
                           2252 ;	songs_def.c 38
                           2253 ; genCmpEq
                           2254 ; AOP_HL for _patern
   006E 21 00 00           2255 	ld	hl,#_patern + 0
   0071 7E                 2256 	ld	a,(hl) ; 2
   0072 FE 03              2257 	cp	a,#0x03
   0074 C2 81 00           2258 	jp	nz,00141$
   0077 21 01 00           2259 	ld	hl,#_patern + 1
   007A 7E                 2260 	ld	a,(hl) ; 2
                           2261 ; Rule 3
   007B B7                 2262 	or	a,a
   007C C2 81 00           2263 	jp	nz,00141$
   007F 18 03              2264 	jr	00142$
   0081                    2265 00141$:
   0081 C3 8F 00           2266 	jp	00108$
   0084                    2267 00142$:
                           2268 ; genAddrOf
                           2269 ; AOP_HL for _data_song_ptr
   0084 11 00 00           2270 	ld	de,#_data_song_fullos3
   0087 21 06 00           2271 	ld	hl,#_data_song_ptr + 0
   008A 73                 2272 	ld	(hl),e
   008B 21 07 00           2273 	ld	hl,#_data_song_ptr + 1
   008E 72                 2274 	ld	(hl),d
                           2275 ; genLabel
   008F                    2276 00108$:
                           2277 ;	songs_def.c 39
                           2278 ; genCmpEq
                           2279 ; AOP_HL for _patern
   008F 21 00 00           2280 	ld	hl,#_patern + 0
   0092 7E                 2281 	ld	a,(hl) ; 2
   0093 FE 04              2282 	cp	a,#0x04
   0095 C2 A2 00           2283 	jp	nz,00143$
   0098 21 01 00           2284 	ld	hl,#_patern + 1
   009B 7E                 2285 	ld	a,(hl) ; 2
                           2286 ; Rule 3
   009C B7                 2287 	or	a,a
   009D C2 A2 00           2288 	jp	nz,00143$
   00A0 18 03              2289 	jr	00144$
   00A2                    2290 00143$:
   00A2 C3 B0 00           2291 	jp	00110$
   00A5                    2292 00144$:
                           2293 ; genAddrOf
                           2294 ; AOP_HL for _data_song_ptr
   00A5 11 00 00           2295 	ld	de,#_data_song_fullos4
   00A8 21 06 00           2296 	ld	hl,#_data_song_ptr + 0
   00AB 73                 2297 	ld	(hl),e
   00AC 21 07 00           2298 	ld	hl,#_data_song_ptr + 1
   00AF 72                 2299 	ld	(hl),d
                           2300 ; genLabel
   00B0                    2301 00110$:
                           2302 ;	songs_def.c 40
                           2303 ; genCmpEq
                           2304 ; AOP_HL for _patern
   00B0 21 00 00           2305 	ld	hl,#_patern + 0
   00B3 7E                 2306 	ld	a,(hl) ; 2
   00B4 FE 05              2307 	cp	a,#0x05
   00B6 C2 C3 00           2308 	jp	nz,00145$
   00B9 21 01 00           2309 	ld	hl,#_patern + 1
   00BC 7E                 2310 	ld	a,(hl) ; 2
                           2311 ; Rule 3
   00BD B7                 2312 	or	a,a
   00BE C2 C3 00           2313 	jp	nz,00145$
   00C1 18 03              2314 	jr	00146$
   00C3                    2315 00145$:
   00C3 C3 D1 00           2316 	jp	00112$
   00C6                    2317 00146$:
                           2318 ; genAddrOf
                           2319 ; AOP_HL for _data_song_ptr
   00C6 11 00 00           2320 	ld	de,#_data_song_fullos5
   00C9 21 06 00           2321 	ld	hl,#_data_song_ptr + 0
   00CC 73                 2322 	ld	(hl),e
   00CD 21 07 00           2323 	ld	hl,#_data_song_ptr + 1
   00D0 72                 2324 	ld	(hl),d
                           2325 ; genLabel
   00D1                    2326 00112$:
                           2327 ;	songs_def.c 41
                           2328 ; genCmpEq
                           2329 ; AOP_HL for _patern
   00D1 21 00 00           2330 	ld	hl,#_patern + 0
   00D4 7E                 2331 	ld	a,(hl) ; 2
   00D5 FE 06              2332 	cp	a,#0x06
   00D7 C2 E4 00           2333 	jp	nz,00147$
   00DA 21 01 00           2334 	ld	hl,#_patern + 1
   00DD 7E                 2335 	ld	a,(hl) ; 2
                           2336 ; Rule 3
   00DE B7                 2337 	or	a,a
   00DF C2 E4 00           2338 	jp	nz,00147$
   00E2 18 03              2339 	jr	00148$
   00E4                    2340 00147$:
   00E4 C3 F2 00           2341 	jp	00114$
   00E7                    2342 00148$:
                           2343 ; genAddrOf
                           2344 ; AOP_HL for _data_song_ptr
   00E7 11 00 00           2345 	ld	de,#_data_song_fullos6
   00EA 21 06 00           2346 	ld	hl,#_data_song_ptr + 0
   00ED 73                 2347 	ld	(hl),e
   00EE 21 07 00           2348 	ld	hl,#_data_song_ptr + 1
   00F1 72                 2349 	ld	(hl),d
                           2350 ; genLabel
   00F2                    2351 00114$:
                           2352 ;	songs_def.c 42
                           2353 ; genCmpEq
                           2354 ; AOP_HL for _patern
   00F2 21 00 00           2355 	ld	hl,#_patern + 0
   00F5 7E                 2356 	ld	a,(hl) ; 2
   00F6 FE 07              2357 	cp	a,#0x07
   00F8 C2 05 01           2358 	jp	nz,00149$
   00FB 21 01 00           2359 	ld	hl,#_patern + 1
   00FE 7E                 2360 	ld	a,(hl) ; 2
                           2361 ; Rule 3
   00FF B7                 2362 	or	a,a
   0100 C2 05 01           2363 	jp	nz,00149$
   0103 18 03              2364 	jr	00150$
   0105                    2365 00149$:
   0105 C3 13 01           2366 	jp	00116$
   0108                    2367 00150$:
                           2368 ; genAddrOf
                           2369 ; AOP_HL for _data_song_ptr
   0108 11 00 00           2370 	ld	de,#_data_song_fullos7
   010B 21 06 00           2371 	ld	hl,#_data_song_ptr + 0
   010E 73                 2372 	ld	(hl),e
   010F 21 07 00           2373 	ld	hl,#_data_song_ptr + 1
   0112 72                 2374 	ld	(hl),d
                           2375 ; genLabel
   0113                    2376 00116$:
                           2377 ;	songs_def.c 43
                           2378 ; genCmpEq
                           2379 ; AOP_HL for _patern
   0113 21 00 00           2380 	ld	hl,#_patern + 0
   0116 7E                 2381 	ld	a,(hl) ; 2
   0117 FE 08              2382 	cp	a,#0x08
   0119 C2 26 01           2383 	jp	nz,00151$
   011C 21 01 00           2384 	ld	hl,#_patern + 1
   011F 7E                 2385 	ld	a,(hl) ; 2
                           2386 ; Rule 3
   0120 B7                 2387 	or	a,a
   0121 C2 26 01           2388 	jp	nz,00151$
   0124 18 03              2389 	jr	00152$
   0126                    2390 00151$:
   0126 C3 34 01           2391 	jp	00121$
   0129                    2392 00152$:
                           2393 ; genAddrOf
                           2394 ; AOP_HL for _data_song_ptr
   0129 11 00 00           2395 	ld	de,#_data_song_fullos8
   012C 21 06 00           2396 	ld	hl,#_data_song_ptr + 0
   012F 73                 2397 	ld	(hl),e
   0130 21 07 00           2398 	ld	hl,#_data_song_ptr + 1
   0133 72                 2399 	ld	(hl),d
                           2400 ; genLabel
   0134                    2401 00121$:
                           2402 ; genEndFunction
   0134 C1                 2403 	pop	bc
   0135 C9                 2404 	ret
   0136                    2405 ___patern_definition_end:
                           2406 ;	LP1.297a.c 100
                           2407 ; genLabel
                           2408 ; genFunction
                           2409 ;	---------------------------------
                           2410 ; Function stopmusic
                           2411 ; ---------------------------------
   0136                    2412 ___stopmusic_start:
   0136                    2413 _stopmusic:
   0136 C5                 2414 	push	bc
                           2415 ;	LP1.297a.c 103
                           2416 ; genAssign
                           2417 ; AOP_SFR for _NR52_REG
   0137 3E 8F              2418 	ld	a,#0x8F
   0139 E0 00              2419 	ldh	(_NR52_REG+0),a
                           2420 ;	LP1.297a.c 104
                           2421 ; genAssign
                           2422 ; AOP_SFR for _NR51_REG
   013B 3E 00              2423 	ld	a,#0x00
   013D E0 00              2424 	ldh	(_NR51_REG+0),a
                           2425 ;	LP1.297a.c 105
                           2426 ; genAssign
                           2427 ; AOP_SFR for _NR50_REG
   013F 3E 77              2428 	ld	a,#0x77
   0141 E0 00              2429 	ldh	(_NR50_REG+0),a
                           2430 ;	LP1.297a.c 106
                           2431 ; genAssign
                           2432 ; AOP_HL for _fx_pan0
   0143 21 1E 00           2433 	ld	hl,#_fx_pan0 + 0
   0146 36 11              2434 	ld	(hl),#0x11
   0148 21 1F 00           2435 	ld	hl,#_fx_pan0 + 1
   014B 36 00              2436 	ld	(hl),#0x00
                           2437 ;	LP1.297a.c 107
                           2438 ; genAssign
                           2439 ; AOP_HL for _fx_pan1
   014D 21 20 00           2440 	ld	hl,#_fx_pan1 + 0
   0150 36 22              2441 	ld	(hl),#0x22
   0152 21 21 00           2442 	ld	hl,#_fx_pan1 + 1
   0155 36 00              2443 	ld	(hl),#0x00
                           2444 ;	LP1.297a.c 108
                           2445 ; genAssign
                           2446 ; AOP_HL for _fx_pan2
   0157 21 22 00           2447 	ld	hl,#_fx_pan2 + 0
   015A 36 44              2448 	ld	(hl),#0x44
   015C 21 23 00           2449 	ld	hl,#_fx_pan2 + 1
   015F 36 00              2450 	ld	(hl),#0x00
                           2451 ;	LP1.297a.c 109
                           2452 ; genAssign
                           2453 ; AOP_HL for _fx_pan3
   0161 21 24 00           2454 	ld	hl,#_fx_pan3 + 0
   0164 36 88              2455 	ld	(hl),#0x88
   0166 21 25 00           2456 	ld	hl,#_fx_pan3 + 1
   0169 36 00              2457 	ld	(hl),#0x00
                           2458 ; genLabel
   016B                    2459 00101$:
                           2460 ; genEndFunction
   016B C1                 2461 	pop	bc
   016C C9                 2462 	ret
   016D                    2463 ___stopmusic_end:
                           2464 ;	LP1.297a.c 114
                           2465 ; genLabel
                           2466 ; genFunction
                           2467 ;	---------------------------------
                           2468 ; Function resetmusic
                           2469 ; ---------------------------------
   016D                    2470 ___resetmusic_start:
   016D                    2471 _resetmusic:
   016D C5                 2472 	push	bc
                           2473 ;	LP1.297a.c 118
                           2474 ; genAssign
                           2475 ; AOP_SFR for _NR52_REG
   016E 3E 00              2476 	ld	a,#0x00
   0170 E0 00              2477 	ldh	(_NR52_REG+0),a
                           2478 ;	LP1.297a.c 120
                           2479 ; genAssign
                           2480 ; AOP_HL for _step
   0172 21 0A 00           2481 	ld	hl,#_step + 0
   0175 36 00              2482 	ld	(hl),#0x00
   0177 21 0B 00           2483 	ld	hl,#_step + 1
   017A 36 00              2484 	ld	(hl),#0x00
                           2485 ;	LP1.297a.c 121
                           2486 ; genAssign
                           2487 ; AOP_HL for _patern
   017C 21 00 00           2488 	ld	hl,#_patern + 0
   017F 36 00              2489 	ld	(hl),#0x00
   0181 21 01 00           2490 	ld	hl,#_patern + 1
   0184 36 00              2491 	ld	(hl),#0x00
                           2492 ;	LP1.297a.c 122
                           2493 ; genAssign
                           2494 ; AOP_HL for _fx_pan0
   0186 21 1E 00           2495 	ld	hl,#_fx_pan0 + 0
   0189 36 11              2496 	ld	(hl),#0x11
   018B 21 1F 00           2497 	ld	hl,#_fx_pan0 + 1
   018E 36 00              2498 	ld	(hl),#0x00
                           2499 ;	LP1.297a.c 123
                           2500 ; genAssign
                           2501 ; AOP_HL for _fx_pan1
   0190 21 20 00           2502 	ld	hl,#_fx_pan1 + 0
   0193 36 22              2503 	ld	(hl),#0x22
   0195 21 21 00           2504 	ld	hl,#_fx_pan1 + 1
   0198 36 00              2505 	ld	(hl),#0x00
                           2506 ;	LP1.297a.c 124
                           2507 ; genAssign
                           2508 ; AOP_HL for _fx_pan2
   019A 21 22 00           2509 	ld	hl,#_fx_pan2 + 0
   019D 36 44              2510 	ld	(hl),#0x44
   019F 21 23 00           2511 	ld	hl,#_fx_pan2 + 1
   01A2 36 00              2512 	ld	(hl),#0x00
                           2513 ;	LP1.297a.c 125
                           2514 ; genAssign
                           2515 ; AOP_HL for _fx_pan3
   01A4 21 24 00           2516 	ld	hl,#_fx_pan3 + 0
   01A7 36 88              2517 	ld	(hl),#0x88
   01A9 21 25 00           2518 	ld	hl,#_fx_pan3 + 1
   01AC 36 00              2519 	ld	(hl),#0x00
                           2520 ;	LP1.297a.c 127
                           2521 ; genAssign
                           2522 ; AOP_SFR for _NR52_REG
   01AE 3E 8F              2523 	ld	a,#0x8F
   01B0 E0 00              2524 	ldh	(_NR52_REG+0),a
                           2525 ;	LP1.297a.c 128
                           2526 ; genAssign
                           2527 ; AOP_SFR for _NR51_REG
   01B2 3E 00              2528 	ld	a,#0x00
   01B4 E0 00              2529 	ldh	(_NR51_REG+0),a
                           2530 ;	LP1.297a.c 129
                           2531 ; genAssign
                           2532 ; AOP_SFR for _NR50_REG
   01B6 3E 77              2533 	ld	a,#0x77
   01B8 E0 00              2534 	ldh	(_NR50_REG+0),a
                           2535 ; genLabel
   01BA                    2536 00101$:
                           2537 ; genEndFunction
   01BA C1                 2538 	pop	bc
   01BB C9                 2539 	ret
   01BC                    2540 ___resetmusic_end:
                           2541 ;	LP1.297a.c 135
                           2542 ; genLabel
                           2543 ; genFunction
                           2544 ;	---------------------------------
                           2545 ; Function effect_test
                           2546 ; ---------------------------------
   01BC                    2547 ___effect_test_start:
   01BC                    2548 _effect_test:
   01BC C5                 2549 	push	bc
   01BD E8 FD              2550 	lda sp,-3(sp)
                           2551 ;	LP1.297a.c 138
                           2552 ; genRightShift
                           2553 ; AOP_HL for _data_song
                           2554 ; shift right 	result 2, left 2
   01BF 21 1A 00           2555 	ld	hl,#_data_song + 0
   01C2 4E                 2556 	ld	c,(hl)
   01C3 21 1B 00           2557 	ld	hl,#_data_song + 1
   01C6 46                 2558 	ld	b,(hl)
   01C7 3E 05              2559 	ld	a,#0x04+1
   01C9 18 05              2560 	jr	00227$
   01CB                    2561 00226$:
   01CB B7                 2562 	or	a,a
   01CC CB 18              2563 	rr	b
   01CE CB 19              2564 	rr	c
   01D0                    2565 00227$:
   01D0 3D                 2566 	dec	a
   01D1 20 F8              2567 	jr	nz,00226$
                           2568 ; genCast
                           2569 ; Removed redundent load
                           2570 ; genAnd
                           2571 ; AOP_STK for _effect_test_sloc0_1_0
   01D3 79                 2572 	ld	a,c
   01D4 E6 03              2573 	and	a,#0x03
   01D6 F8 02              2574 	lda	hl,2(sp)
   01D8 77                 2575 	ld	(hl),a ; 3
                           2576 ; genCmpEq
                           2577 ; AOP_STK for _effect_test_sloc0_1_0
   01D9 7E                 2578 	ld	a,(hl) ; 2
   01DA FE 01              2579 	cp	a,#0x01
   01DC C2 E1 01           2580 	jp	nz,00228$
   01DF 18 03              2581 	jr	00229$
   01E1                    2582 00228$:
   01E1 C3 93 03           2583 	jp	00129$
   01E4                    2584 00229$:
                           2585 ;	LP1.297a.c 139
                           2586 ; genCmpEq
                           2587 ; AOP_HL for _voice
   01E4 21 10 00           2588 	ld	hl,#_voice + 0
   01E7 7E                 2589 	ld	a,(hl)
   01E8 21 11 00           2590 	ld	hl,#_voice + 1
   01EB B6                 2591 	or	a,(hl)
   01EC C2 F1 01           2592 	jp	nz,00230$
   01EF 18 03              2593 	jr	00231$
   01F1                    2594 00230$:
   01F1 C3 47 02           2595 	jp	00104$
   01F4                    2596 00231$:
                           2597 ;	LP1.297a.c 140
                           2598 ; genCast
                           2599 ; AOP_HL for _data_song
   01F4 21 1A 00           2600 	ld	hl,#_data_song + 0
   01F7 4E                 2601 	ld	c,(hl)
                           2602 ; genAnd
   01F8 79                 2603 	ld	a,c
   01F9 E6 0F              2604 	and	a,#0x0F
   01FB 4F                 2605 	ld	c,a
                           2606 ; genLeftShift
                           2607 ; AOP_HL for _fx_value
   01FC 79                 2608 	ld	a,c
   01FD CB 17              2609 	rl	a
   01FF CB 17              2610 	rl	a
   0201 CB 17              2611 	rl	a
   0203 CB 17              2612 	rl	a
   0205 E6 F0              2613 	and	a,#0xF0
   0207 21 1C 00           2614 	ld	hl,#_fx_value + 0
   020A 77                 2615 	ld	(hl),a
                           2616 ;	LP1.297a.c 141
                           2617 ; genAssign
                           2618 ; AOP_HL for _fx_value
                           2619 ; AOP_HL for _fx_volume
   020B 7E                 2620 	ld	a,(hl)
   020C 21 1D 00           2621 	ld	hl,#_fx_volume + 0
   020F 77                 2622 	ld	(hl),a
                           2623 ;	LP1.297a.c 142
                           2624 ; genCmpEq
                           2625 ; AOP_HL for _gb_freq
   0210 21 18 00           2626 	ld	hl,#_gb_freq + 0
   0213 7E                 2627 	ld	a,(hl) ; 2
   0214 FE 48              2628 	cp	a,#0x48
   0216 C2 23 02           2629 	jp	nz,00232$
   0219 21 19 00           2630 	ld	hl,#_gb_freq + 1
   021C 7E                 2631 	ld	a,(hl) ; 2
                           2632 ; Rule 3
   021D B7                 2633 	or	a,a
   021E C2 23 02           2634 	jp	nz,00232$
   0221 18 03              2635 	jr	00233$
   0223                    2636 00232$:
   0223 C3 47 02           2637 	jp	00104$
   0226                    2638 00233$:
                           2639 ;	LP1.297a.c 143
                           2640 ; genCast
                           2641 ; AOP_HL for _snd_env0
   0226 21 2A 00           2642 	ld	hl,#_snd_env0 + 0
   0229 4E                 2643 	ld	c,(hl)
                           2644 ; genAnd
   022A 79                 2645 	ld	a,c
   022B E6 0F              2646 	and	a,#0x0F
                           2647 ; genOr
                           2648 ; AOP_HL for _fx_value
                           2649 ; AOP_SFR for _NR12_REG
                           2650 ; Type res[4] = l[11]&r[10]
                           2651 ; Size res[1] = l[1]&r[1]
   022D 21 1C 00           2652 	ld	hl,#_fx_value + 0
   0230 B6                 2653 	or	a,(hl)
   0231 E0 00              2654 	ldh	(_NR12_REG+0),a
                           2655 ;	LP1.297a.c 144
                           2656 ; genOr
                           2657 ; AOP_HL for _freqHI_v1
                           2658 ; AOP_STK for _effect_test_sloc1_1_0
                           2659 ; Type res[5] = l[10]&r[1]
                           2660 ; Size res[2] = l[2]&r[2]
   0233 21 14 00           2661 	ld	hl,#_freqHI_v1 + 0
   0236 7E                 2662 	ld	a,(hl)
   0237 F6 80              2663 	or	a,#0x80
   0239 F8 00              2664 	lda	hl,0(sp)
   023B 77                 2665 	ld	(hl),a ; 3
   023C 21 15 00           2666 	ld	hl,#_freqHI_v1 + 1
   023F 7E                 2667 	ld	a,(hl)
   0240 F8 01              2668 	lda	hl,1(sp)
   0242 77                 2669 	ld	(hl),a ; 3
                           2670 ; genCast
                           2671 ; AOP_STK for _effect_test_sloc1_1_0
                           2672 ; AOP_SFR for _NR14_REG
   0243 2B                 2673 	dec	hl
   0244 7E                 2674 	ld	a,(hl)
   0245 E0 00              2675 	ldh	(_NR14_REG+0),a
                           2676 ; genLabel
   0247                    2677 00104$:
                           2678 ;	LP1.297a.c 147
                           2679 ; genCmpEq
                           2680 ; AOP_HL for _voice
   0247 21 10 00           2681 	ld	hl,#_voice + 0
   024A 7E                 2682 	ld	a,(hl) ; 2
   024B FE 01              2683 	cp	a,#0x01
   024D C2 5A 02           2684 	jp	nz,00234$
   0250 21 11 00           2685 	ld	hl,#_voice + 1
   0253 7E                 2686 	ld	a,(hl) ; 2
                           2687 ; Rule 3
   0254 B7                 2688 	or	a,a
   0255 C2 5A 02           2689 	jp	nz,00234$
   0258 18 03              2690 	jr	00235$
   025A                    2691 00234$:
   025A C3 B0 02           2692 	jp	00108$
   025D                    2693 00235$:
                           2694 ;	LP1.297a.c 148
                           2695 ; genCast
                           2696 ; AOP_HL for _data_song
   025D 21 1A 00           2697 	ld	hl,#_data_song + 0
   0260 4E                 2698 	ld	c,(hl)
                           2699 ; genAnd
   0261 79                 2700 	ld	a,c
   0262 E6 0F              2701 	and	a,#0x0F
   0264 4F                 2702 	ld	c,a
                           2703 ; genLeftShift
                           2704 ; AOP_HL for _fx_value
   0265 79                 2705 	ld	a,c
   0266 CB 17              2706 	rl	a
   0268 CB 17              2707 	rl	a
   026A CB 17              2708 	rl	a
   026C CB 17              2709 	rl	a
   026E E6 F0              2710 	and	a,#0xF0
   0270 21 1C 00           2711 	ld	hl,#_fx_value + 0
   0273 77                 2712 	ld	(hl),a
                           2713 ;	LP1.297a.c 149
                           2714 ; genAssign
                           2715 ; AOP_HL for _fx_value
                           2716 ; AOP_HL for _fx_volume
   0274 7E                 2717 	ld	a,(hl)
   0275 21 1D 00           2718 	ld	hl,#_fx_volume + 0
   0278 77                 2719 	ld	(hl),a
                           2720 ;	LP1.297a.c 150
                           2721 ; genCmpEq
                           2722 ; AOP_HL for _gb_freq
   0279 21 18 00           2723 	ld	hl,#_gb_freq + 0
   027C 7E                 2724 	ld	a,(hl) ; 2
   027D FE 48              2725 	cp	a,#0x48
   027F C2 8C 02           2726 	jp	nz,00236$
   0282 21 19 00           2727 	ld	hl,#_gb_freq + 1
   0285 7E                 2728 	ld	a,(hl) ; 2
                           2729 ; Rule 3
   0286 B7                 2730 	or	a,a
   0287 C2 8C 02           2731 	jp	nz,00236$
   028A 18 03              2732 	jr	00237$
   028C                    2733 00236$:
   028C C3 B0 02           2734 	jp	00108$
   028F                    2735 00237$:
                           2736 ;	LP1.297a.c 151
                           2737 ; genCast
                           2738 ; AOP_HL for _snd_env1
   028F 21 30 00           2739 	ld	hl,#_snd_env1 + 0
   0292 4E                 2740 	ld	c,(hl)
                           2741 ; genAnd
   0293 79                 2742 	ld	a,c
   0294 E6 0F              2743 	and	a,#0x0F
                           2744 ; genOr
                           2745 ; AOP_HL for _fx_value
                           2746 ; AOP_SFR for _NR22_REG
                           2747 ; Type res[4] = l[11]&r[10]
                           2748 ; Size res[1] = l[1]&r[1]
   0296 21 1C 00           2749 	ld	hl,#_fx_value + 0
   0299 B6                 2750 	or	a,(hl)
   029A E0 00              2751 	ldh	(_NR22_REG+0),a
                           2752 ;	LP1.297a.c 152
                           2753 ; genOr
                           2754 ; AOP_HL for _freqHI_v2
                           2755 ; AOP_STK for _effect_test_sloc1_1_0
                           2756 ; Type res[5] = l[10]&r[1]
                           2757 ; Size res[2] = l[2]&r[2]
   029C 21 16 00           2758 	ld	hl,#_freqHI_v2 + 0
   029F 7E                 2759 	ld	a,(hl)
   02A0 F6 80              2760 	or	a,#0x80
   02A2 F8 00              2761 	lda	hl,0(sp)
   02A4 77                 2762 	ld	(hl),a ; 3
   02A5 21 17 00           2763 	ld	hl,#_freqHI_v2 + 1
   02A8 7E                 2764 	ld	a,(hl)
   02A9 F8 01              2765 	lda	hl,1(sp)
   02AB 77                 2766 	ld	(hl),a ; 3
                           2767 ; genCast
                           2768 ; AOP_STK for _effect_test_sloc1_1_0
                           2769 ; AOP_SFR for _NR24_REG
   02AC 2B                 2770 	dec	hl
   02AD 7E                 2771 	ld	a,(hl)
   02AE E0 00              2772 	ldh	(_NR24_REG+0),a
                           2773 ; genLabel
   02B0                    2774 00108$:
                           2775 ;	LP1.297a.c 155
                           2776 ; genCmpEq
                           2777 ; AOP_HL for _voice
   02B0 21 10 00           2778 	ld	hl,#_voice + 0
   02B3 7E                 2779 	ld	a,(hl) ; 2
   02B4 FE 02              2780 	cp	a,#0x02
   02B6 C2 C3 02           2781 	jp	nz,00238$
   02B9 21 11 00           2782 	ld	hl,#_voice + 1
   02BC 7E                 2783 	ld	a,(hl) ; 2
                           2784 ; Rule 3
   02BD B7                 2785 	or	a,a
   02BE C2 C3 02           2786 	jp	nz,00238$
   02C1 18 03              2787 	jr	00239$
   02C3                    2788 00238$:
   02C3 C3 3A 03           2789 	jp	00123$
   02C6                    2790 00239$:
                           2791 ;	LP1.297a.c 156
                           2792 ; genCast
                           2793 ; AOP_HL for _data_song
   02C6 21 1A 00           2794 	ld	hl,#_data_song + 0
   02C9 4E                 2795 	ld	c,(hl)
                           2796 ; genAnd
                           2797 ; AOP_HL for _fx_value
   02CA 79                 2798 	ld	a,c
   02CB E6 0F              2799 	and	a,#0x0F
   02CD 21 1C 00           2800 	ld	hl,#_fx_value + 0
   02D0 77                 2801 	ld	(hl),a
                           2802 ;	LP1.297a.c 157
                           2803 ; genCmpEq
                           2804 ; AOP_HL for _fx_value
   02D1 7E                 2805 	ld	a,(hl)
   02D2 B7                 2806 	or	a,a
   02D3 C2 D8 02           2807 	jp	nz,00240$
   02D6 18 03              2808 	jr	00241$
   02D8                    2809 00240$:
   02D8 C3 E0 02           2810 	jp	00110$
   02DB                    2811 00241$:
                           2812 ; genAssign
                           2813 ; AOP_HL for _fx_value
   02DB 21 1C 00           2814 	ld	hl,#_fx_value + 0
   02DE 36 00              2815 	ld	(hl),#0x00
                           2816 ; genLabel
   02E0                    2817 00110$:
                           2818 ;	LP1.297a.c 158
                           2819 ; genCmpLt
                           2820 ; AOP_HL for _fx_value
   02E0 21 1C 00           2821 	ld	hl,#_fx_value + 0
   02E3 7E                 2822 	ld	a,(hl)
   02E4 FE 01              2823 	cp	#0x01
   02E6 DA F2 02           2824 	jp	c,00112$
                           2825 ; genCmpGt
                           2826 ; AOP_HL for _fx_value
   02E9 AF                 2827 	xor	a,a
   02EA 3E 05              2828 	ld	a,#0x05
   02EC 9E                 2829 	sbc	a,(hl) ; 2
   02ED DA F2 02           2830 	jp	c,00112$
                           2831 ; genAssign
                           2832 ; AOP_HL for _fx_value
   02F0 36 60              2833 	ld	(hl),#0x60
                           2834 ; genLabel
   02F2                    2835 00112$:
                           2836 ;	LP1.297a.c 159
                           2837 ; genCmpLt
                           2838 ; AOP_HL for _fx_value
   02F2 21 1C 00           2839 	ld	hl,#_fx_value + 0
   02F5 7E                 2840 	ld	a,(hl)
   02F6 FE 06              2841 	cp	#0x06
   02F8 DA 04 03           2842 	jp	c,00115$
                           2843 ; genCmpGt
                           2844 ; AOP_HL for _fx_value
   02FB AF                 2845 	xor	a,a
   02FC 3E 0A              2846 	ld	a,#0x0A
   02FE 9E                 2847 	sbc	a,(hl) ; 2
   02FF DA 04 03           2848 	jp	c,00115$
                           2849 ; genAssign
                           2850 ; AOP_HL for _fx_value
   0302 36 40              2851 	ld	(hl),#0x40
                           2852 ; genLabel
   0304                    2853 00115$:
                           2854 ;	LP1.297a.c 160
                           2855 ; genCmpLt
                           2856 ; AOP_HL for _fx_value
   0304 21 1C 00           2857 	ld	hl,#_fx_value + 0
   0307 7E                 2858 	ld	a,(hl)
   0308 FE 0B              2859 	cp	#0x0B
   030A DA 16 03           2860 	jp	c,00118$
                           2861 ; genCmpGt
                           2862 ; AOP_HL for _fx_value
   030D AF                 2863 	xor	a,a
   030E 3E 0F              2864 	ld	a,#0x0F
   0310 9E                 2865 	sbc	a,(hl) ; 2
   0311 DA 16 03           2866 	jp	c,00118$
                           2867 ; genAssign
                           2868 ; AOP_HL for _fx_value
   0314 36 20              2869 	ld	(hl),#0x20
                           2870 ; genLabel
   0316                    2871 00118$:
                           2872 ;	LP1.297a.c 161
                           2873 ; genAssign
                           2874 ; AOP_HL for _fx_value
                           2875 ; AOP_HL for _fx_volume
   0316 21 1C 00           2876 	ld	hl,#_fx_value + 0
   0319 7E                 2877 	ld	a,(hl)
   031A 21 1D 00           2878 	ld	hl,#_fx_volume + 0
   031D 77                 2879 	ld	(hl),a
                           2880 ;	LP1.297a.c 162
                           2881 ; genCmpEq
                           2882 ; AOP_HL for _gb_freq
   031E 21 18 00           2883 	ld	hl,#_gb_freq + 0
   0321 7E                 2884 	ld	a,(hl) ; 2
   0322 FE 48              2885 	cp	a,#0x48
   0324 C2 31 03           2886 	jp	nz,00242$
   0327 21 19 00           2887 	ld	hl,#_gb_freq + 1
   032A 7E                 2888 	ld	a,(hl) ; 2
                           2889 ; Rule 3
   032B B7                 2890 	or	a,a
   032C C2 31 03           2891 	jp	nz,00242$
   032F 18 03              2892 	jr	00243$
   0331                    2893 00242$:
   0331 C3 3A 03           2894 	jp	00123$
   0334                    2895 00243$:
                           2896 ;	LP1.297a.c 163
                           2897 ; genAssign
                           2898 ; AOP_HL for _fx_volume
                           2899 ; AOP_SFR for _NR32_REG
   0334 21 1D 00           2900 	ld	hl,#_fx_volume + 0
   0337 7E                 2901 	ld	a,(hl)
   0338 E0 00              2902 	ldh	(_NR32_REG+0),a
                           2903 ; genLabel
   033A                    2904 00123$:
                           2905 ;	LP1.297a.c 166
                           2906 ; genCmpEq
                           2907 ; AOP_HL for _voice
   033A 21 10 00           2908 	ld	hl,#_voice + 0
   033D 7E                 2909 	ld	a,(hl) ; 2
   033E FE 03              2910 	cp	a,#0x03
   0340 C2 4D 03           2911 	jp	nz,00244$
   0343 21 11 00           2912 	ld	hl,#_voice + 1
   0346 7E                 2913 	ld	a,(hl) ; 2
                           2914 ; Rule 3
   0347 B7                 2915 	or	a,a
   0348 C2 4D 03           2916 	jp	nz,00244$
   034B 18 03              2917 	jr	00245$
   034D                    2918 00244$:
   034D C3 93 03           2919 	jp	00129$
   0350                    2920 00245$:
                           2921 ;	LP1.297a.c 167
                           2922 ; genCast
                           2923 ; AOP_HL for _data_song
   0350 21 1A 00           2924 	ld	hl,#_data_song + 0
   0353 4E                 2925 	ld	c,(hl)
                           2926 ; genAnd
   0354 79                 2927 	ld	a,c
   0355 E6 0F              2928 	and	a,#0x0F
   0357 4F                 2929 	ld	c,a
                           2930 ; genLeftShift
                           2931 ; AOP_HL for _fx_value
   0358 79                 2932 	ld	a,c
   0359 CB 17              2933 	rl	a
   035B CB 17              2934 	rl	a
   035D CB 17              2935 	rl	a
   035F CB 17              2936 	rl	a
   0361 E6 F0              2937 	and	a,#0xF0
   0363 21 1C 00           2938 	ld	hl,#_fx_value + 0
   0366 77                 2939 	ld	(hl),a
                           2940 ;	LP1.297a.c 168
                           2941 ; genAssign
                           2942 ; AOP_HL for _fx_value
                           2943 ; AOP_HL for _fx_volume
   0367 7E                 2944 	ld	a,(hl)
   0368 21 1D 00           2945 	ld	hl,#_fx_volume + 0
   036B 77                 2946 	ld	(hl),a
                           2947 ;	LP1.297a.c 169
                           2948 ; genCmpEq
                           2949 ; AOP_HL for _gb_freq
   036C 21 18 00           2950 	ld	hl,#_gb_freq + 0
   036F 7E                 2951 	ld	a,(hl) ; 2
   0370 FE 48              2952 	cp	a,#0x48
   0372 C2 7F 03           2953 	jp	nz,00246$
   0375 21 19 00           2954 	ld	hl,#_gb_freq + 1
   0378 7E                 2955 	ld	a,(hl) ; 2
                           2956 ; Rule 3
   0379 B7                 2957 	or	a,a
   037A C2 7F 03           2958 	jp	nz,00246$
   037D 18 03              2959 	jr	00247$
   037F                    2960 00246$:
   037F C3 93 03           2961 	jp	00129$
   0382                    2962 00247$:
                           2963 ;	LP1.297a.c 170
                           2964 ; genCast
                           2965 ; AOP_HL for _snd_env3
   0382 21 36 00           2966 	ld	hl,#_snd_env3 + 0
   0385 4E                 2967 	ld	c,(hl)
                           2968 ; genAnd
   0386 79                 2969 	ld	a,c
   0387 E6 0F              2970 	and	a,#0x0F
                           2971 ; genOr
                           2972 ; AOP_HL for _fx_value
                           2973 ; AOP_SFR for _NR42_REG
                           2974 ; Type res[4] = l[11]&r[10]
                           2975 ; Size res[1] = l[1]&r[1]
   0389 21 1C 00           2976 	ld	hl,#_fx_value + 0
   038C B6                 2977 	or	a,(hl)
   038D E0 00              2978 	ldh	(_NR42_REG+0),a
                           2979 ;	LP1.297a.c 171
                           2980 ; genAssign
                           2981 ; AOP_SFR for _NR44_REG
   038F 3E 80              2982 	ld	a,#0x80
   0391 E0 00              2983 	ldh	(_NR44_REG+0),a
                           2984 ; genLabel
   0393                    2985 00129$:
                           2986 ;	LP1.297a.c 178
                           2987 ; genCmpEq
                           2988 ; AOP_STK for _effect_test_sloc0_1_0
   0393 F8 02              2989 	lda	hl,2(sp)
   0395 7E                 2990 	ld	a,(hl) ; 2
   0396 FE 02              2991 	cp	a,#0x02
   0398 C2 9D 03           2992 	jp	nz,00248$
   039B 18 03              2993 	jr	00249$
   039D                    2994 00248$:
   039D C3 7D 06           2995 	jp	00171$
   03A0                    2996 00249$:
                           2997 ;	LP1.297a.c 179
                           2998 ; genCast
                           2999 ; AOP_HL for _data_song
   03A0 21 1A 00           3000 	ld	hl,#_data_song + 0
   03A3 4E                 3001 	ld	c,(hl)
                           3002 ; genAnd
                           3003 ; AOP_HL for _fx_value
   03A4 79                 3004 	ld	a,c
   03A5 E6 0F              3005 	and	a,#0x0F
   03A7 21 1C 00           3006 	ld	hl,#_fx_value + 0
   03AA 77                 3007 	ld	(hl),a
                           3008 ;	LP1.297a.c 180
                           3009 ; genCmpEq
                           3010 ; AOP_HL for _voice
   03AB 21 10 00           3011 	ld	hl,#_voice + 0
   03AE 7E                 3012 	ld	a,(hl)
   03AF 21 11 00           3013 	ld	hl,#_voice + 1
   03B2 B6                 3014 	or	a,(hl)
   03B3 C2 B8 03           3015 	jp	nz,00250$
   03B6 18 03              3016 	jr	00251$
   03B8                    3017 00250$:
   03B8 C3 5B 04           3018 	jp	00139$
   03BB                    3019 00251$:
                           3020 ;	LP1.297a.c 181
                           3021 ; genCmpEq
                           3022 ; AOP_HL for _fx_value
   03BB 21 1C 00           3023 	ld	hl,#_fx_value + 0
   03BE 7E                 3024 	ld	a,(hl)
   03BF B7                 3025 	or	a,a
   03C0 C2 C5 03           3026 	jp	nz,00252$
   03C3 18 03              3027 	jr	00253$
   03C5                    3028 00252$:
   03C5 C3 D2 03           3029 	jp	00131$
   03C8                    3030 00253$:
                           3031 ; genAssign
                           3032 ; AOP_HL for _fx_pan0
   03C8 21 1E 00           3033 	ld	hl,#_fx_pan0 + 0
   03CB 36 01              3034 	ld	(hl),#0x01
   03CD 21 1F 00           3035 	ld	hl,#_fx_pan0 + 1
   03D0 36 00              3036 	ld	(hl),#0x00
                           3037 ; genLabel
   03D2                    3038 00131$:
                           3039 ;	LP1.297a.c 182
                           3040 ; genCmpEq
                           3041 ; AOP_HL for _fx_value
   03D2 21 1C 00           3042 	ld	hl,#_fx_value + 0
   03D5 7E                 3043 	ld	a,(hl) ; 2
   03D6 FE 08              3044 	cp	a,#0x08
   03D8 C2 DD 03           3045 	jp	nz,00254$
   03DB 18 03              3046 	jr	00255$
   03DD                    3047 00254$:
   03DD C3 EA 03           3048 	jp	00133$
   03E0                    3049 00255$:
                           3050 ; genAssign
                           3051 ; AOP_HL for _fx_pan0
   03E0 21 1E 00           3052 	ld	hl,#_fx_pan0 + 0
   03E3 36 11              3053 	ld	(hl),#0x11
   03E5 21 1F 00           3054 	ld	hl,#_fx_pan0 + 1
   03E8 36 00              3055 	ld	(hl),#0x00
                           3056 ; genLabel
   03EA                    3057 00133$:
                           3058 ;	LP1.297a.c 183
                           3059 ; genCmpEq
                           3060 ; AOP_HL for _fx_value
   03EA 21 1C 00           3061 	ld	hl,#_fx_value + 0
   03ED 7E                 3062 	ld	a,(hl) ; 2
   03EE FE 0F              3063 	cp	a,#0x0F
   03F0 C2 F5 03           3064 	jp	nz,00256$
   03F3 18 03              3065 	jr	00257$
   03F5                    3066 00256$:
   03F5 C3 02 04           3067 	jp	00135$
   03F8                    3068 00257$:
                           3069 ; genAssign
                           3070 ; AOP_HL for _fx_pan0
   03F8 21 1E 00           3071 	ld	hl,#_fx_pan0 + 0
   03FB 36 10              3072 	ld	(hl),#0x10
   03FD 21 1F 00           3073 	ld	hl,#_fx_pan0 + 1
   0400 36 00              3074 	ld	(hl),#0x00
                           3075 ; genLabel
   0402                    3076 00135$:
                           3077 ;	LP1.297a.c 184
                           3078 ; genCmpEq
                           3079 ; AOP_HL for _gb_freq
   0402 21 18 00           3080 	ld	hl,#_gb_freq + 0
   0405 7E                 3081 	ld	a,(hl) ; 2
   0406 FE 48              3082 	cp	a,#0x48
   0408 C2 15 04           3083 	jp	nz,00258$
   040B 21 19 00           3084 	ld	hl,#_gb_freq + 1
   040E 7E                 3085 	ld	a,(hl) ; 2
                           3086 ; Rule 3
   040F B7                 3087 	or	a,a
   0410 C2 15 04           3088 	jp	nz,00258$
   0413 18 03              3089 	jr	00259$
   0415                    3090 00258$:
   0415 C3 56 04           3091 	jp	00137$
   0418                    3092 00259$:
                           3093 ; genOr
                           3094 ; AOP_HL for _fx_pan0
                           3095 ; AOP_HL for _fx_pan1
                           3096 ; AOP_STK for _effect_test_sloc1_1_0
                           3097 ; Type res[5] = l[10]&r[10]
                           3098 ; Size res[2] = l[2]&r[2]
   0418 21 1E 00           3099 	ld	hl,#_fx_pan0 + 0
   041B 7E                 3100 	ld	a,(hl)
   041C 21 20 00           3101 	ld	hl,#_fx_pan1 + 0
   041F B6                 3102 	or	a,(hl)
   0420 F8 00              3103 	lda	hl,0(sp)
   0422 77                 3104 	ld	(hl),a ; 3
   0423 21 1F 00           3105 	ld	hl,#_fx_pan0 + 1
   0426 7E                 3106 	ld	a,(hl)
   0427 21 21 00           3107 	ld	hl,#_fx_pan1 + 1
   042A B6                 3108 	or	a,(hl)
   042B F8 01              3109 	lda	hl,1(sp)
   042D 77                 3110 	ld	(hl),a ; 3
                           3111 ; genOr
                           3112 ; AOP_STK for _effect_test_sloc1_1_0
                           3113 ; AOP_HL for _fx_pan2
                           3114 ; Type res[5] = l[5]&r[10]
                           3115 ; Size res[2] = l[2]&r[2]
   042E 2B                 3116 	dec	hl
   042F 7E                 3117 	ld	a,(hl)
   0430 21 22 00           3118 	ld	hl,#_fx_pan2 + 0
   0433 B6                 3119 	or	a,(hl)
   0434 F8 00              3120 	lda	hl,0(sp)
   0436 77                 3121 	ld	(hl),a ; 3
   0437 23                 3122 	inc	hl
   0438 7E                 3123 	ld	a,(hl)
   0439 21 23 00           3124 	ld	hl,#_fx_pan2 + 1
   043C B6                 3125 	or	a,(hl)
   043D F8 01              3126 	lda	hl,1(sp)
   043F 77                 3127 	ld	(hl),a ; 3
                           3128 ; genOr
                           3129 ; AOP_STK for _effect_test_sloc1_1_0
                           3130 ; AOP_HL for _fx_pan3
                           3131 ; Type res[5] = l[5]&r[10]
                           3132 ; Size res[2] = l[2]&r[2]
   0440 2B                 3133 	dec	hl
   0441 7E                 3134 	ld	a,(hl)
   0442 21 24 00           3135 	ld	hl,#_fx_pan3 + 0
   0445 B6                 3136 	or	a,(hl)
   0446 F8 00              3137 	lda	hl,0(sp)
   0448 77                 3138 	ld	(hl),a ; 3
   0449 23                 3139 	inc	hl
   044A 7E                 3140 	ld	a,(hl)
   044B 21 25 00           3141 	ld	hl,#_fx_pan3 + 1
   044E B6                 3142 	or	a,(hl)
   044F F8 01              3143 	lda	hl,1(sp)
   0451 77                 3144 	ld	(hl),a ; 3
                           3145 ; genCast
                           3146 ; AOP_STK for _effect_test_sloc1_1_0
                           3147 ; AOP_SFR for _NR51_REG
   0452 2B                 3148 	dec	hl
   0453 7E                 3149 	ld	a,(hl)
   0454 E0 00              3150 	ldh	(_NR51_REG+0),a
                           3151 ; genLabel
   0456                    3152 00137$:
                           3153 ;	LP1.297a.c 185
                           3154 ; genAssign
                           3155 ; AOP_HL for _fx_volume
   0456 21 1D 00           3156 	ld	hl,#_fx_volume + 0
   0459 36 F0              3157 	ld	(hl),#0xF0
                           3158 ; genLabel
   045B                    3159 00139$:
                           3160 ;	LP1.297a.c 187
                           3161 ; genCmpEq
                           3162 ; AOP_HL for _voice
   045B 21 10 00           3163 	ld	hl,#_voice + 0
   045E 7E                 3164 	ld	a,(hl) ; 2
   045F FE 01              3165 	cp	a,#0x01
   0461 C2 6E 04           3166 	jp	nz,00260$
   0464 21 11 00           3167 	ld	hl,#_voice + 1
   0467 7E                 3168 	ld	a,(hl) ; 2
                           3169 ; Rule 3
   0468 B7                 3170 	or	a,a
   0469 C2 6E 04           3171 	jp	nz,00260$
   046C 18 03              3172 	jr	00261$
   046E                    3173 00260$:
   046E C3 11 05           3174 	jp	00149$
   0471                    3175 00261$:
                           3176 ;	LP1.297a.c 188
                           3177 ; genCmpEq
                           3178 ; AOP_HL for _fx_value
   0471 21 1C 00           3179 	ld	hl,#_fx_value + 0
   0474 7E                 3180 	ld	a,(hl)
   0475 B7                 3181 	or	a,a
   0476 C2 7B 04           3182 	jp	nz,00262$
   0479 18 03              3183 	jr	00263$
   047B                    3184 00262$:
   047B C3 88 04           3185 	jp	00141$
   047E                    3186 00263$:
                           3187 ; genAssign
                           3188 ; AOP_HL for _fx_pan1
   047E 21 20 00           3189 	ld	hl,#_fx_pan1 + 0
   0481 36 02              3190 	ld	(hl),#0x02
   0483 21 21 00           3191 	ld	hl,#_fx_pan1 + 1
   0486 36 00              3192 	ld	(hl),#0x00
                           3193 ; genLabel
   0488                    3194 00141$:
                           3195 ;	LP1.297a.c 189
                           3196 ; genCmpEq
                           3197 ; AOP_HL for _fx_value
   0488 21 1C 00           3198 	ld	hl,#_fx_value + 0
   048B 7E                 3199 	ld	a,(hl) ; 2
   048C FE 08              3200 	cp	a,#0x08
   048E C2 93 04           3201 	jp	nz,00264$
   0491 18 03              3202 	jr	00265$
   0493                    3203 00264$:
   0493 C3 A0 04           3204 	jp	00143$
   0496                    3205 00265$:
                           3206 ; genAssign
                           3207 ; AOP_HL for _fx_pan1
   0496 21 20 00           3208 	ld	hl,#_fx_pan1 + 0
   0499 36 22              3209 	ld	(hl),#0x22
   049B 21 21 00           3210 	ld	hl,#_fx_pan1 + 1
   049E 36 00              3211 	ld	(hl),#0x00
                           3212 ; genLabel
   04A0                    3213 00143$:
                           3214 ;	LP1.297a.c 190
                           3215 ; genCmpEq
                           3216 ; AOP_HL for _fx_value
   04A0 21 1C 00           3217 	ld	hl,#_fx_value + 0
   04A3 7E                 3218 	ld	a,(hl) ; 2
   04A4 FE 0F              3219 	cp	a,#0x0F
   04A6 C2 AB 04           3220 	jp	nz,00266$
   04A9 18 03              3221 	jr	00267$
   04AB                    3222 00266$:
   04AB C3 B8 04           3223 	jp	00145$
   04AE                    3224 00267$:
                           3225 ; genAssign
                           3226 ; AOP_HL for _fx_pan1
   04AE 21 20 00           3227 	ld	hl,#_fx_pan1 + 0
   04B1 36 20              3228 	ld	(hl),#0x20
   04B3 21 21 00           3229 	ld	hl,#_fx_pan1 + 1
   04B6 36 00              3230 	ld	(hl),#0x00
                           3231 ; genLabel
   04B8                    3232 00145$:
                           3233 ;	LP1.297a.c 191
                           3234 ; genCmpEq
                           3235 ; AOP_HL for _gb_freq
   04B8 21 18 00           3236 	ld	hl,#_gb_freq + 0
   04BB 7E                 3237 	ld	a,(hl) ; 2
   04BC FE 48              3238 	cp	a,#0x48
   04BE C2 CB 04           3239 	jp	nz,00268$
   04C1 21 19 00           3240 	ld	hl,#_gb_freq + 1
   04C4 7E                 3241 	ld	a,(hl) ; 2
                           3242 ; Rule 3
   04C5 B7                 3243 	or	a,a
   04C6 C2 CB 04           3244 	jp	nz,00268$
   04C9 18 03              3245 	jr	00269$
   04CB                    3246 00268$:
   04CB C3 0C 05           3247 	jp	00147$
   04CE                    3248 00269$:
                           3249 ; genOr
                           3250 ; AOP_HL for _fx_pan0
                           3251 ; AOP_HL for _fx_pan1
                           3252 ; AOP_STK for _effect_test_sloc1_1_0
                           3253 ; Type res[5] = l[10]&r[10]
                           3254 ; Size res[2] = l[2]&r[2]
   04CE 21 1E 00           3255 	ld	hl,#_fx_pan0 + 0
   04D1 7E                 3256 	ld	a,(hl)
   04D2 21 20 00           3257 	ld	hl,#_fx_pan1 + 0
   04D5 B6                 3258 	or	a,(hl)
   04D6 F8 00              3259 	lda	hl,0(sp)
   04D8 77                 3260 	ld	(hl),a ; 3
   04D9 21 1F 00           3261 	ld	hl,#_fx_pan0 + 1
   04DC 7E                 3262 	ld	a,(hl)
   04DD 21 21 00           3263 	ld	hl,#_fx_pan1 + 1
   04E0 B6                 3264 	or	a,(hl)
   04E1 F8 01              3265 	lda	hl,1(sp)
   04E3 77                 3266 	ld	(hl),a ; 3
                           3267 ; genOr
                           3268 ; AOP_STK for _effect_test_sloc1_1_0
                           3269 ; AOP_HL for _fx_pan2
                           3270 ; Type res[5] = l[5]&r[10]
                           3271 ; Size res[2] = l[2]&r[2]
   04E4 2B                 3272 	dec	hl
   04E5 7E                 3273 	ld	a,(hl)
   04E6 21 22 00           3274 	ld	hl,#_fx_pan2 + 0
   04E9 B6                 3275 	or	a,(hl)
   04EA F8 00              3276 	lda	hl,0(sp)
   04EC 77                 3277 	ld	(hl),a ; 3
   04ED 23                 3278 	inc	hl
   04EE 7E                 3279 	ld	a,(hl)
   04EF 21 23 00           3280 	ld	hl,#_fx_pan2 + 1
   04F2 B6                 3281 	or	a,(hl)
   04F3 F8 01              3282 	lda	hl,1(sp)
   04F5 77                 3283 	ld	(hl),a ; 3
                           3284 ; genOr
                           3285 ; AOP_STK for _effect_test_sloc1_1_0
                           3286 ; AOP_HL for _fx_pan3
                           3287 ; Type res[5] = l[5]&r[10]
                           3288 ; Size res[2] = l[2]&r[2]
   04F6 2B                 3289 	dec	hl
   04F7 7E                 3290 	ld	a,(hl)
   04F8 21 24 00           3291 	ld	hl,#_fx_pan3 + 0
   04FB B6                 3292 	or	a,(hl)
   04FC F8 00              3293 	lda	hl,0(sp)
   04FE 77                 3294 	ld	(hl),a ; 3
   04FF 23                 3295 	inc	hl
   0500 7E                 3296 	ld	a,(hl)
   0501 21 25 00           3297 	ld	hl,#_fx_pan3 + 1
   0504 B6                 3298 	or	a,(hl)
   0505 F8 01              3299 	lda	hl,1(sp)
   0507 77                 3300 	ld	(hl),a ; 3
                           3301 ; genCast
                           3302 ; AOP_STK for _effect_test_sloc1_1_0
                           3303 ; AOP_SFR for _NR51_REG
   0508 2B                 3304 	dec	hl
   0509 7E                 3305 	ld	a,(hl)
   050A E0 00              3306 	ldh	(_NR51_REG+0),a
                           3307 ; genLabel
   050C                    3308 00147$:
                           3309 ;	LP1.297a.c 192
                           3310 ; genAssign
                           3311 ; AOP_HL for _fx_volume
   050C 21 1D 00           3312 	ld	hl,#_fx_volume + 0
   050F 36 F0              3313 	ld	(hl),#0xF0
                           3314 ; genLabel
   0511                    3315 00149$:
                           3316 ;	LP1.297a.c 194
                           3317 ; genCmpEq
                           3318 ; AOP_HL for _voice
   0511 21 10 00           3319 	ld	hl,#_voice + 0
   0514 7E                 3320 	ld	a,(hl) ; 2
   0515 FE 02              3321 	cp	a,#0x02
   0517 C2 24 05           3322 	jp	nz,00270$
   051A 21 11 00           3323 	ld	hl,#_voice + 1
   051D 7E                 3324 	ld	a,(hl) ; 2
                           3325 ; Rule 3
   051E B7                 3326 	or	a,a
   051F C2 24 05           3327 	jp	nz,00270$
   0522 18 03              3328 	jr	00271$
   0524                    3329 00270$:
   0524 C3 C7 05           3330 	jp	00159$
   0527                    3331 00271$:
                           3332 ;	LP1.297a.c 195
                           3333 ; genCmpEq
                           3334 ; AOP_HL for _fx_value
   0527 21 1C 00           3335 	ld	hl,#_fx_value + 0
   052A 7E                 3336 	ld	a,(hl)
   052B B7                 3337 	or	a,a
   052C C2 31 05           3338 	jp	nz,00272$
   052F 18 03              3339 	jr	00273$
   0531                    3340 00272$:
   0531 C3 3E 05           3341 	jp	00151$
   0534                    3342 00273$:
                           3343 ; genAssign
                           3344 ; AOP_HL for _fx_pan2
   0534 21 22 00           3345 	ld	hl,#_fx_pan2 + 0
   0537 36 04              3346 	ld	(hl),#0x04
   0539 21 23 00           3347 	ld	hl,#_fx_pan2 + 1
   053C 36 00              3348 	ld	(hl),#0x00
                           3349 ; genLabel
   053E                    3350 00151$:
                           3351 ;	LP1.297a.c 196
                           3352 ; genCmpEq
                           3353 ; AOP_HL for _fx_value
   053E 21 1C 00           3354 	ld	hl,#_fx_value + 0
   0541 7E                 3355 	ld	a,(hl) ; 2
   0542 FE 08              3356 	cp	a,#0x08
   0544 C2 49 05           3357 	jp	nz,00274$
   0547 18 03              3358 	jr	00275$
   0549                    3359 00274$:
   0549 C3 56 05           3360 	jp	00153$
   054C                    3361 00275$:
                           3362 ; genAssign
                           3363 ; AOP_HL for _fx_pan2
   054C 21 22 00           3364 	ld	hl,#_fx_pan2 + 0
   054F 36 44              3365 	ld	(hl),#0x44
   0551 21 23 00           3366 	ld	hl,#_fx_pan2 + 1
   0554 36 00              3367 	ld	(hl),#0x00
                           3368 ; genLabel
   0556                    3369 00153$:
                           3370 ;	LP1.297a.c 197
                           3371 ; genCmpEq
                           3372 ; AOP_HL for _fx_value
   0556 21 1C 00           3373 	ld	hl,#_fx_value + 0
   0559 7E                 3374 	ld	a,(hl) ; 2
   055A FE 0F              3375 	cp	a,#0x0F
   055C C2 61 05           3376 	jp	nz,00276$
   055F 18 03              3377 	jr	00277$
   0561                    3378 00276$:
   0561 C3 6E 05           3379 	jp	00155$
   0564                    3380 00277$:
                           3381 ; genAssign
                           3382 ; AOP_HL for _fx_pan2
   0564 21 22 00           3383 	ld	hl,#_fx_pan2 + 0
   0567 36 40              3384 	ld	(hl),#0x40
   0569 21 23 00           3385 	ld	hl,#_fx_pan2 + 1
   056C 36 00              3386 	ld	(hl),#0x00
                           3387 ; genLabel
   056E                    3388 00155$:
                           3389 ;	LP1.297a.c 198
                           3390 ; genCmpEq
                           3391 ; AOP_HL for _gb_freq
   056E 21 18 00           3392 	ld	hl,#_gb_freq + 0
   0571 7E                 3393 	ld	a,(hl) ; 2
   0572 FE 48              3394 	cp	a,#0x48
   0574 C2 81 05           3395 	jp	nz,00278$
   0577 21 19 00           3396 	ld	hl,#_gb_freq + 1
   057A 7E                 3397 	ld	a,(hl) ; 2
                           3398 ; Rule 3
   057B B7                 3399 	or	a,a
   057C C2 81 05           3400 	jp	nz,00278$
   057F 18 03              3401 	jr	00279$
   0581                    3402 00278$:
   0581 C3 C2 05           3403 	jp	00157$
   0584                    3404 00279$:
                           3405 ; genOr
                           3406 ; AOP_HL for _fx_pan0
                           3407 ; AOP_HL for _fx_pan1
                           3408 ; AOP_STK for _effect_test_sloc1_1_0
                           3409 ; Type res[5] = l[10]&r[10]
                           3410 ; Size res[2] = l[2]&r[2]
   0584 21 1E 00           3411 	ld	hl,#_fx_pan0 + 0
   0587 7E                 3412 	ld	a,(hl)
   0588 21 20 00           3413 	ld	hl,#_fx_pan1 + 0
   058B B6                 3414 	or	a,(hl)
   058C F8 00              3415 	lda	hl,0(sp)
   058E 77                 3416 	ld	(hl),a ; 3
   058F 21 1F 00           3417 	ld	hl,#_fx_pan0 + 1
   0592 7E                 3418 	ld	a,(hl)
   0593 21 21 00           3419 	ld	hl,#_fx_pan1 + 1
   0596 B6                 3420 	or	a,(hl)
   0597 F8 01              3421 	lda	hl,1(sp)
   0599 77                 3422 	ld	(hl),a ; 3
                           3423 ; genOr
                           3424 ; AOP_STK for _effect_test_sloc1_1_0
                           3425 ; AOP_HL for _fx_pan2
                           3426 ; Type res[5] = l[5]&r[10]
                           3427 ; Size res[2] = l[2]&r[2]
   059A 2B                 3428 	dec	hl
   059B 7E                 3429 	ld	a,(hl)
   059C 21 22 00           3430 	ld	hl,#_fx_pan2 + 0
   059F B6                 3431 	or	a,(hl)
   05A0 F8 00              3432 	lda	hl,0(sp)
   05A2 77                 3433 	ld	(hl),a ; 3
   05A3 23                 3434 	inc	hl
   05A4 7E                 3435 	ld	a,(hl)
   05A5 21 23 00           3436 	ld	hl,#_fx_pan2 + 1
   05A8 B6                 3437 	or	a,(hl)
   05A9 F8 01              3438 	lda	hl,1(sp)
   05AB 77                 3439 	ld	(hl),a ; 3
                           3440 ; genOr
                           3441 ; AOP_STK for _effect_test_sloc1_1_0
                           3442 ; AOP_HL for _fx_pan3
                           3443 ; Type res[5] = l[5]&r[10]
                           3444 ; Size res[2] = l[2]&r[2]
   05AC 2B                 3445 	dec	hl
   05AD 7E                 3446 	ld	a,(hl)
   05AE 21 24 00           3447 	ld	hl,#_fx_pan3 + 0
   05B1 B6                 3448 	or	a,(hl)
   05B2 F8 00              3449 	lda	hl,0(sp)
   05B4 77                 3450 	ld	(hl),a ; 3
   05B5 23                 3451 	inc	hl
   05B6 7E                 3452 	ld	a,(hl)
   05B7 21 25 00           3453 	ld	hl,#_fx_pan3 + 1
   05BA B6                 3454 	or	a,(hl)
   05BB F8 01              3455 	lda	hl,1(sp)
   05BD 77                 3456 	ld	(hl),a ; 3
                           3457 ; genCast
                           3458 ; AOP_STK for _effect_test_sloc1_1_0
                           3459 ; AOP_SFR for _NR51_REG
   05BE 2B                 3460 	dec	hl
   05BF 7E                 3461 	ld	a,(hl)
   05C0 E0 00              3462 	ldh	(_NR51_REG+0),a
                           3463 ; genLabel
   05C2                    3464 00157$:
                           3465 ;	LP1.297a.c 199
                           3466 ; genAssign
                           3467 ; AOP_HL for _fx_volume
   05C2 21 1D 00           3468 	ld	hl,#_fx_volume + 0
   05C5 36 20              3469 	ld	(hl),#0x20
                           3470 ; genLabel
   05C7                    3471 00159$:
                           3472 ;	LP1.297a.c 201
                           3473 ; genCmpEq
                           3474 ; AOP_HL for _voice
   05C7 21 10 00           3475 	ld	hl,#_voice + 0
   05CA 7E                 3476 	ld	a,(hl) ; 2
   05CB FE 03              3477 	cp	a,#0x03
   05CD C2 DA 05           3478 	jp	nz,00280$
   05D0 21 11 00           3479 	ld	hl,#_voice + 1
   05D3 7E                 3480 	ld	a,(hl) ; 2
                           3481 ; Rule 3
   05D4 B7                 3482 	or	a,a
   05D5 C2 DA 05           3483 	jp	nz,00280$
   05D8 18 03              3484 	jr	00281$
   05DA                    3485 00280$:
   05DA C3 7D 06           3486 	jp	00171$
   05DD                    3487 00281$:
                           3488 ;	LP1.297a.c 202
                           3489 ; genCmpEq
                           3490 ; AOP_HL for _fx_value
   05DD 21 1C 00           3491 	ld	hl,#_fx_value + 0
   05E0 7E                 3492 	ld	a,(hl)
   05E1 B7                 3493 	or	a,a
   05E2 C2 E7 05           3494 	jp	nz,00282$
   05E5 18 03              3495 	jr	00283$
   05E7                    3496 00282$:
   05E7 C3 F4 05           3497 	jp	00161$
   05EA                    3498 00283$:
                           3499 ; genAssign
                           3500 ; AOP_HL for _fx_pan3
   05EA 21 24 00           3501 	ld	hl,#_fx_pan3 + 0
   05ED 36 08              3502 	ld	(hl),#0x08
   05EF 21 25 00           3503 	ld	hl,#_fx_pan3 + 1
   05F2 36 00              3504 	ld	(hl),#0x00
                           3505 ; genLabel
   05F4                    3506 00161$:
                           3507 ;	LP1.297a.c 203
                           3508 ; genCmpEq
                           3509 ; AOP_HL for _fx_value
   05F4 21 1C 00           3510 	ld	hl,#_fx_value + 0
   05F7 7E                 3511 	ld	a,(hl) ; 2
   05F8 FE 08              3512 	cp	a,#0x08
   05FA C2 FF 05           3513 	jp	nz,00284$
   05FD 18 03              3514 	jr	00285$
   05FF                    3515 00284$:
   05FF C3 0C 06           3516 	jp	00163$
   0602                    3517 00285$:
                           3518 ; genAssign
                           3519 ; AOP_HL for _fx_pan3
   0602 21 24 00           3520 	ld	hl,#_fx_pan3 + 0
   0605 36 88              3521 	ld	(hl),#0x88
   0607 21 25 00           3522 	ld	hl,#_fx_pan3 + 1
   060A 36 00              3523 	ld	(hl),#0x00
                           3524 ; genLabel
   060C                    3525 00163$:
                           3526 ;	LP1.297a.c 204
                           3527 ; genCmpEq
                           3528 ; AOP_HL for _fx_value
   060C 21 1C 00           3529 	ld	hl,#_fx_value + 0
   060F 7E                 3530 	ld	a,(hl) ; 2
   0610 FE 0F              3531 	cp	a,#0x0F
   0612 C2 17 06           3532 	jp	nz,00286$
   0615 18 03              3533 	jr	00287$
   0617                    3534 00286$:
   0617 C3 24 06           3535 	jp	00165$
   061A                    3536 00287$:
                           3537 ; genAssign
                           3538 ; AOP_HL for _fx_pan3
   061A 21 24 00           3539 	ld	hl,#_fx_pan3 + 0
   061D 36 80              3540 	ld	(hl),#0x80
   061F 21 25 00           3541 	ld	hl,#_fx_pan3 + 1
   0622 36 00              3542 	ld	(hl),#0x00
                           3543 ; genLabel
   0624                    3544 00165$:
                           3545 ;	LP1.297a.c 205
                           3546 ; genCmpEq
                           3547 ; AOP_HL for _gb_freq
   0624 21 18 00           3548 	ld	hl,#_gb_freq + 0
   0627 7E                 3549 	ld	a,(hl) ; 2
   0628 FE 48              3550 	cp	a,#0x48
   062A C2 37 06           3551 	jp	nz,00288$
   062D 21 19 00           3552 	ld	hl,#_gb_freq + 1
   0630 7E                 3553 	ld	a,(hl) ; 2
                           3554 ; Rule 3
   0631 B7                 3555 	or	a,a
   0632 C2 37 06           3556 	jp	nz,00288$
   0635 18 03              3557 	jr	00289$
   0637                    3558 00288$:
   0637 C3 78 06           3559 	jp	00167$
   063A                    3560 00289$:
                           3561 ; genOr
                           3562 ; AOP_HL for _fx_pan0
                           3563 ; AOP_HL for _fx_pan1
                           3564 ; AOP_STK for _effect_test_sloc1_1_0
                           3565 ; Type res[5] = l[10]&r[10]
                           3566 ; Size res[2] = l[2]&r[2]
   063A 21 1E 00           3567 	ld	hl,#_fx_pan0 + 0
   063D 7E                 3568 	ld	a,(hl)
   063E 21 20 00           3569 	ld	hl,#_fx_pan1 + 0
   0641 B6                 3570 	or	a,(hl)
   0642 F8 00              3571 	lda	hl,0(sp)
   0644 77                 3572 	ld	(hl),a ; 3
   0645 21 1F 00           3573 	ld	hl,#_fx_pan0 + 1
   0648 7E                 3574 	ld	a,(hl)
   0649 21 21 00           3575 	ld	hl,#_fx_pan1 + 1
   064C B6                 3576 	or	a,(hl)
   064D F8 01              3577 	lda	hl,1(sp)
   064F 77                 3578 	ld	(hl),a ; 3
                           3579 ; genOr
                           3580 ; AOP_STK for _effect_test_sloc1_1_0
                           3581 ; AOP_HL for _fx_pan2
                           3582 ; Type res[5] = l[5]&r[10]
                           3583 ; Size res[2] = l[2]&r[2]
   0650 2B                 3584 	dec	hl
   0651 7E                 3585 	ld	a,(hl)
   0652 21 22 00           3586 	ld	hl,#_fx_pan2 + 0
   0655 B6                 3587 	or	a,(hl)
   0656 F8 00              3588 	lda	hl,0(sp)
   0658 77                 3589 	ld	(hl),a ; 3
   0659 23                 3590 	inc	hl
   065A 7E                 3591 	ld	a,(hl)
   065B 21 23 00           3592 	ld	hl,#_fx_pan2 + 1
   065E B6                 3593 	or	a,(hl)
   065F F8 01              3594 	lda	hl,1(sp)
   0661 77                 3595 	ld	(hl),a ; 3
                           3596 ; genOr
                           3597 ; AOP_STK for _effect_test_sloc1_1_0
                           3598 ; AOP_HL for _fx_pan3
                           3599 ; Type res[5] = l[5]&r[10]
                           3600 ; Size res[2] = l[2]&r[2]
   0662 2B                 3601 	dec	hl
   0663 7E                 3602 	ld	a,(hl)
   0664 21 24 00           3603 	ld	hl,#_fx_pan3 + 0
   0667 B6                 3604 	or	a,(hl)
   0668 F8 00              3605 	lda	hl,0(sp)
   066A 77                 3606 	ld	(hl),a ; 3
   066B 23                 3607 	inc	hl
   066C 7E                 3608 	ld	a,(hl)
   066D 21 25 00           3609 	ld	hl,#_fx_pan3 + 1
   0670 B6                 3610 	or	a,(hl)
   0671 F8 01              3611 	lda	hl,1(sp)
   0673 77                 3612 	ld	(hl),a ; 3
                           3613 ; genCast
                           3614 ; AOP_STK for _effect_test_sloc1_1_0
                           3615 ; AOP_SFR for _NR51_REG
   0674 2B                 3616 	dec	hl
   0675 7E                 3617 	ld	a,(hl)
   0676 E0 00              3618 	ldh	(_NR51_REG+0),a
                           3619 ; genLabel
   0678                    3620 00167$:
                           3621 ;	LP1.297a.c 206
                           3622 ; genAssign
                           3623 ; AOP_HL for _fx_volume
   0678 21 1D 00           3624 	ld	hl,#_fx_volume + 0
   067B 36 F0              3625 	ld	(hl),#0xF0
                           3626 ; genLabel
   067D                    3627 00171$:
                           3628 ;	LP1.297a.c 211
                           3629 ; genCmpEq
                           3630 ; AOP_STK for _effect_test_sloc0_1_0
   067D F8 02              3631 	lda	hl,2(sp)
   067F 7E                 3632 	ld	a,(hl)
   0680 B7                 3633 	or	a,a
   0681 C2 86 06           3634 	jp	nz,00290$
   0684 18 03              3635 	jr	00291$
   0686                    3636 00290$:
   0686 C3 EF 06           3637 	jp	00182$
   0689                    3638 00291$:
                           3639 ;	LP1.297a.c 212
                           3640 ; genCmpEq
                           3641 ; AOP_HL for _voice
   0689 21 10 00           3642 	ld	hl,#_voice + 0
   068C 7E                 3643 	ld	a,(hl)
   068D 21 11 00           3644 	ld	hl,#_voice + 1
   0690 B6                 3645 	or	a,(hl)
   0691 C2 96 06           3646 	jp	nz,00292$
   0694 18 03              3647 	jr	00293$
   0696                    3648 00292$:
   0696 C3 9E 06           3649 	jp	00173$
   0699                    3650 00293$:
                           3651 ; genAssign
                           3652 ; AOP_HL for _fx_volume
   0699 21 1D 00           3653 	ld	hl,#_fx_volume + 0
   069C 36 F0              3654 	ld	(hl),#0xF0
                           3655 ; genLabel
   069E                    3656 00173$:
                           3657 ;	LP1.297a.c 213
                           3658 ; genCmpEq
                           3659 ; AOP_HL for _voice
   069E 21 10 00           3660 	ld	hl,#_voice + 0
   06A1 7E                 3661 	ld	a,(hl) ; 2
   06A2 FE 01              3662 	cp	a,#0x01
   06A4 C2 B1 06           3663 	jp	nz,00294$
   06A7 21 11 00           3664 	ld	hl,#_voice + 1
   06AA 7E                 3665 	ld	a,(hl) ; 2
                           3666 ; Rule 3
   06AB B7                 3667 	or	a,a
   06AC C2 B1 06           3668 	jp	nz,00294$
   06AF 18 03              3669 	jr	00295$
   06B1                    3670 00294$:
   06B1 C3 B9 06           3671 	jp	00175$
   06B4                    3672 00295$:
                           3673 ; genAssign
                           3674 ; AOP_HL for _fx_volume
   06B4 21 1D 00           3675 	ld	hl,#_fx_volume + 0
   06B7 36 F0              3676 	ld	(hl),#0xF0
                           3677 ; genLabel
   06B9                    3678 00175$:
                           3679 ;	LP1.297a.c 214
                           3680 ; genCmpEq
                           3681 ; AOP_HL for _voice
   06B9 21 10 00           3682 	ld	hl,#_voice + 0
   06BC 7E                 3683 	ld	a,(hl) ; 2
   06BD FE 02              3684 	cp	a,#0x02
   06BF C2 CC 06           3685 	jp	nz,00296$
   06C2 21 11 00           3686 	ld	hl,#_voice + 1
   06C5 7E                 3687 	ld	a,(hl) ; 2
                           3688 ; Rule 3
   06C6 B7                 3689 	or	a,a
   06C7 C2 CC 06           3690 	jp	nz,00296$
   06CA 18 03              3691 	jr	00297$
   06CC                    3692 00296$:
   06CC C3 D4 06           3693 	jp	00177$
   06CF                    3694 00297$:
                           3695 ; genAssign
                           3696 ; AOP_HL for _fx_volume
   06CF 21 1D 00           3697 	ld	hl,#_fx_volume + 0
   06D2 36 20              3698 	ld	(hl),#0x20
                           3699 ; genLabel
   06D4                    3700 00177$:
                           3701 ;	LP1.297a.c 215
                           3702 ; genCmpEq
                           3703 ; AOP_HL for _voice
   06D4 21 10 00           3704 	ld	hl,#_voice + 0
   06D7 7E                 3705 	ld	a,(hl) ; 2
   06D8 FE 03              3706 	cp	a,#0x03
   06DA C2 E7 06           3707 	jp	nz,00298$
   06DD 21 11 00           3708 	ld	hl,#_voice + 1
   06E0 7E                 3709 	ld	a,(hl) ; 2
                           3710 ; Rule 3
   06E1 B7                 3711 	or	a,a
   06E2 C2 E7 06           3712 	jp	nz,00298$
   06E5 18 03              3713 	jr	00299$
   06E7                    3714 00298$:
   06E7 C3 EF 06           3715 	jp	00182$
   06EA                    3716 00299$:
                           3717 ; genAssign
                           3718 ; AOP_HL for _fx_volume
   06EA 21 1D 00           3719 	ld	hl,#_fx_volume + 0
   06ED 36 F0              3720 	ld	(hl),#0xF0
                           3721 ; genLabel
   06EF                    3722 00182$:
                           3723 ; genEndFunction
   06EF E8 03              3724 	lda	sp,3(sp)
   06F1 C1                 3725 	pop bc
   06F2 C9                 3726 	ret
   06F3                    3727 ___effect_test_end:
                           3728 ;	LP1.297a.c 220
                           3729 ; genLabel
                           3730 ; genFunction
                           3731 ;	---------------------------------
                           3732 ; Function instru_test
                           3733 ; ---------------------------------
   06F3                    3734 ___instru_test_start:
   06F3                    3735 _instru_test:
   06F3 C5                 3736 	push	bc
   06F4 E8 F3              3737 	lda sp,-13(sp)
                           3738 ;	LP1.297a.c 223
                           3739 ; genCmpEq
                           3740 ; AOP_HL for _voice
   06F6 21 10 00           3741 	ld	hl,#_voice + 0
   06F9 7E                 3742 	ld	a,(hl)
   06FA 21 11 00           3743 	ld	hl,#_voice + 1
   06FD B6                 3744 	or	a,(hl)
   06FE C2 03 07           3745 	jp	nz,00211$
   0701 18 03              3746 	jr	00212$
   0703                    3747 00211$:
   0703 C3 FE 08           3748 	jp	00124$
   0706                    3749 00212$:
                           3750 ;	LP1.297a.c 224
                           3751 ; genRightShift
                           3752 ; AOP_HL for _data_song
                           3753 ; shift right 	result 2, left 2
   0706 21 1A 00           3754 	ld	hl,#_data_song + 0
   0709 4E                 3755 	ld	c,(hl)
   070A 21 1B 00           3756 	ld	hl,#_data_song + 1
   070D 46                 3757 	ld	b,(hl)
   070E 3E 07              3758 	ld	a,#0x06+1
   0710 18 05              3759 	jr	00214$
   0712                    3760 00213$:
   0712 B7                 3761 	or	a,a
   0713 CB 18              3762 	rr	b
   0715 CB 19              3763 	rr	c
   0717                    3764 00214$:
   0717 3D                 3765 	dec	a
   0718 20 F8              3766 	jr	nz,00213$
                           3767 ; genCast
                           3768 ; Removed redundent load
                           3769 ; genAnd
                           3770 ; AOP_STK for _instru_test_sloc0_1_0
   071A 79                 3771 	ld	a,c
   071B E6 07              3772 	and	a,#0x07
   071D F8 08              3773 	lda	hl,8(sp)
   071F 77                 3774 	ld	(hl),a ; 3
                           3775 ; genCmpEq
                           3776 ; AOP_STK for _instru_test_sloc0_1_0
   0720 7E                 3777 	ld	a,(hl)
   0721 B7                 3778 	or	a,a
   0722 C2 27 07           3779 	jp	nz,00215$
   0725 18 03              3780 	jr	00216$
   0727                    3781 00215$:
   0727 C3 5B 07           3782 	jp	00110$
   072A                    3783 00216$:
                           3784 ;	LP1.297a.c 226
                           3785 ; genAssign
                           3786 ; AOP_HL for _snd_swp0
   072A 21 26 00           3787 	ld	hl,#_snd_swp0 + 0
   072D 36 00              3788 	ld	(hl),#0x00
   072F 21 27 00           3789 	ld	hl,#_snd_swp0 + 1
   0732 36 00              3790 	ld	(hl),#0x00
                           3791 ;	LP1.297a.c 227
                           3792 ; genAssign
                           3793 ; AOP_HL for _snd_lngh0
   0734 21 28 00           3794 	ld	hl,#_snd_lngh0 + 0
   0737 36 07              3795 	ld	(hl),#0x07
   0739 21 29 00           3796 	ld	hl,#_snd_lngh0 + 1
   073C 36 00              3797 	ld	(hl),#0x00
                           3798 ;	LP1.297a.c 228
                           3799 ; genOr
                           3800 ; AOP_HL for _fx_volume
                           3801 ; Type res[2] = l[10]&r[1]
                           3802 ; Size res[1] = l[1]&r[1]
   073E 21 1D 00           3803 	ld	hl,#_fx_volume + 0
   0741 7E                 3804 	ld	a,(hl)
   0742 F6 02              3805 	or	a,#0x02
   0744 4F                 3806 	ld	c,a
                           3807 ; genCast
                           3808 ; AOP_HL for _snd_env0
   0745 21 2A 00           3809 	ld	hl,#_snd_env0 + 0
   0748 71                 3810 	ld	(hl),c
   0749 21 2B 00           3811 	ld	hl,#_snd_env0 + 1
   074C 36 00              3812 	ld	(hl),#0x00
                           3813 ;	LP1.297a.c 229
                           3814 ; genAssign
                           3815 ; AOP_HL for _snd_cons0
   074E 21 2C 00           3816 	ld	hl,#_snd_cons0 + 0
   0751 36 80              3817 	ld	(hl),#0x80
   0753 21 2D 00           3818 	ld	hl,#_snd_cons0 + 1
   0756 36 00              3819 	ld	(hl),#0x00
                           3820 ; genGoto
   0758 C3 0F 08           3821 	jp	00111$
                           3822 ; genLabel
   075B                    3823 00110$:
                           3824 ;	LP1.297a.c 231
                           3825 ; genCmpEq
                           3826 ; AOP_STK for _instru_test_sloc0_1_0
   075B F8 08              3827 	lda	hl,8(sp)
   075D 7E                 3828 	ld	a,(hl) ; 2
   075E FE 01              3829 	cp	a,#0x01
   0760 C2 65 07           3830 	jp	nz,00217$
   0763 18 03              3831 	jr	00218$
   0765                    3832 00217$:
   0765 C3 99 07           3833 	jp	00107$
   0768                    3834 00218$:
                           3835 ;	LP1.297a.c 233
                           3836 ; genAssign
                           3837 ; AOP_HL for _snd_swp0
   0768 21 26 00           3838 	ld	hl,#_snd_swp0 + 0
   076B 36 00              3839 	ld	(hl),#0x00
   076D 21 27 00           3840 	ld	hl,#_snd_swp0 + 1
   0770 36 00              3841 	ld	(hl),#0x00
                           3842 ;	LP1.297a.c 234
                           3843 ; genAssign
                           3844 ; AOP_HL for _snd_lngh0
   0772 21 28 00           3845 	ld	hl,#_snd_lngh0 + 0
   0775 36 47              3846 	ld	(hl),#0x47
   0777 21 29 00           3847 	ld	hl,#_snd_lngh0 + 1
   077A 36 00              3848 	ld	(hl),#0x00
                           3849 ;	LP1.297a.c 235
                           3850 ; genOr
                           3851 ; AOP_HL for _fx_volume
                           3852 ; Type res[2] = l[10]&r[1]
                           3853 ; Size res[1] = l[1]&r[1]
   077C 21 1D 00           3854 	ld	hl,#_fx_volume + 0
   077F 7E                 3855 	ld	a,(hl)
   0780 F6 02              3856 	or	a,#0x02
   0782 4F                 3857 	ld	c,a
                           3858 ; genCast
                           3859 ; AOP_HL for _snd_env0
   0783 21 2A 00           3860 	ld	hl,#_snd_env0 + 0
   0786 71                 3861 	ld	(hl),c
   0787 21 2B 00           3862 	ld	hl,#_snd_env0 + 1
   078A 36 00              3863 	ld	(hl),#0x00
                           3864 ;	LP1.297a.c 236
                           3865 ; genAssign
                           3866 ; AOP_HL for _snd_cons0
   078C 21 2C 00           3867 	ld	hl,#_snd_cons0 + 0
   078F 36 80              3868 	ld	(hl),#0x80
   0791 21 2D 00           3869 	ld	hl,#_snd_cons0 + 1
   0794 36 00              3870 	ld	(hl),#0x00
                           3871 ; genGoto
   0796 C3 0F 08           3872 	jp	00111$
                           3873 ; genLabel
   0799                    3874 00107$:
                           3875 ;	LP1.297a.c 238
                           3876 ; genCmpEq
                           3877 ; AOP_STK for _instru_test_sloc0_1_0
   0799 F8 08              3878 	lda	hl,8(sp)
   079B 7E                 3879 	ld	a,(hl) ; 2
   079C FE 02              3880 	cp	a,#0x02
   079E C2 A3 07           3881 	jp	nz,00219$
   07A1 18 03              3882 	jr	00220$
   07A3                    3883 00219$:
   07A3 C3 D7 07           3884 	jp	00104$
   07A6                    3885 00220$:
                           3886 ;	LP1.297a.c 240
                           3887 ; genAssign
                           3888 ; AOP_HL for _snd_swp0
   07A6 21 26 00           3889 	ld	hl,#_snd_swp0 + 0
   07A9 36 00              3890 	ld	(hl),#0x00
   07AB 21 27 00           3891 	ld	hl,#_snd_swp0 + 1
   07AE 36 00              3892 	ld	(hl),#0x00
                           3893 ;	LP1.297a.c 241
                           3894 ; genAssign
                           3895 ; AOP_HL for _snd_lngh0
   07B0 21 28 00           3896 	ld	hl,#_snd_lngh0 + 0
   07B3 36 87              3897 	ld	(hl),#0x87
   07B5 21 29 00           3898 	ld	hl,#_snd_lngh0 + 1
   07B8 36 00              3899 	ld	(hl),#0x00
                           3900 ;	LP1.297a.c 242
                           3901 ; genOr
                           3902 ; AOP_HL for _fx_volume
                           3903 ; Type res[2] = l[10]&r[1]
                           3904 ; Size res[1] = l[1]&r[1]
   07BA 21 1D 00           3905 	ld	hl,#_fx_volume + 0
   07BD 7E                 3906 	ld	a,(hl)
   07BE F6 02              3907 	or	a,#0x02
   07C0 4F                 3908 	ld	c,a
                           3909 ; genCast
                           3910 ; AOP_HL for _snd_env0
   07C1 21 2A 00           3911 	ld	hl,#_snd_env0 + 0
   07C4 71                 3912 	ld	(hl),c
   07C5 21 2B 00           3913 	ld	hl,#_snd_env0 + 1
   07C8 36 00              3914 	ld	(hl),#0x00
                           3915 ;	LP1.297a.c 243
                           3916 ; genAssign
                           3917 ; AOP_HL for _snd_cons0
   07CA 21 2C 00           3918 	ld	hl,#_snd_cons0 + 0
   07CD 36 80              3919 	ld	(hl),#0x80
   07CF 21 2D 00           3920 	ld	hl,#_snd_cons0 + 1
   07D2 36 00              3921 	ld	(hl),#0x00
                           3922 ; genGoto
   07D4 C3 0F 08           3923 	jp	00111$
                           3924 ; genLabel
   07D7                    3925 00104$:
                           3926 ;	LP1.297a.c 245
                           3927 ; genCmpEq
                           3928 ; AOP_STK for _instru_test_sloc0_1_0
   07D7 F8 08              3929 	lda	hl,8(sp)
   07D9 7E                 3930 	ld	a,(hl) ; 2
   07DA FE 03              3931 	cp	a,#0x03
   07DC C2 E1 07           3932 	jp	nz,00221$
   07DF 18 03              3933 	jr	00222$
   07E1                    3934 00221$:
   07E1 C3 0F 08           3935 	jp	00111$
   07E4                    3936 00222$:
                           3937 ;	LP1.297a.c 247
                           3938 ; genAssign
                           3939 ; AOP_HL for _snd_swp0
   07E4 21 26 00           3940 	ld	hl,#_snd_swp0 + 0
   07E7 36 00              3941 	ld	(hl),#0x00
   07E9 21 27 00           3942 	ld	hl,#_snd_swp0 + 1
   07EC 36 00              3943 	ld	(hl),#0x00
                           3944 ;	LP1.297a.c 248
                           3945 ; genAssign
                           3946 ; AOP_HL for _snd_lngh0
   07EE 21 28 00           3947 	ld	hl,#_snd_lngh0 + 0
   07F1 36 07              3948 	ld	(hl),#0x07
   07F3 21 29 00           3949 	ld	hl,#_snd_lngh0 + 1
   07F6 36 00              3950 	ld	(hl),#0x00
                           3951 ;	LP1.297a.c 249
                           3952 ; genOr
                           3953 ; AOP_HL for _fx_volume
                           3954 ; Type res[2] = l[10]&r[1]
                           3955 ; Size res[1] = l[1]&r[1]
   07F8 21 1D 00           3956 	ld	hl,#_fx_volume + 0
   07FB 4E                 3957 	ld	c,(hl)
                           3958 ; genCast
                           3959 ; AOP_HL for _snd_env0
   07FC 21 2A 00           3960 	ld	hl,#_snd_env0 + 0
   07FF 71                 3961 	ld	(hl),c
   0800 21 2B 00           3962 	ld	hl,#_snd_env0 + 1
   0803 36 00              3963 	ld	(hl),#0x00
                           3964 ;	LP1.297a.c 250
                           3965 ; genAssign
                           3966 ; AOP_HL for _snd_cons0
   0805 21 2C 00           3967 	ld	hl,#_snd_cons0 + 0
   0808 36 80              3968 	ld	(hl),#0x80
   080A 21 2D 00           3969 	ld	hl,#_snd_cons0 + 1
   080D 36 00              3970 	ld	(hl),#0x00
                           3971 ; genLabel
   080F                    3972 00111$:
                           3973 ;	LP1.297a.c 252
                           3974 ; genCmpEq
                           3975 ; AOP_STK for _instru_test_sloc0_1_0
   080F F8 08              3976 	lda	hl,8(sp)
   0811 7E                 3977 	ld	a,(hl) ; 2
   0812 FE 04              3978 	cp	a,#0x04
   0814 C2 19 08           3979 	jp	nz,00223$
   0817 18 03              3980 	jr	00224$
   0819                    3981 00223$:
   0819 C3 4A 08           3982 	jp	00121$
   081C                    3983 00224$:
                           3984 ;	LP1.297a.c 254
                           3985 ; genAssign
                           3986 ; AOP_HL for _snd_swp0
   081C 21 26 00           3987 	ld	hl,#_snd_swp0 + 0
   081F 36 00              3988 	ld	(hl),#0x00
   0821 21 27 00           3989 	ld	hl,#_snd_swp0 + 1
   0824 36 00              3990 	ld	(hl),#0x00
                           3991 ;	LP1.297a.c 255
                           3992 ; genAssign
                           3993 ; AOP_HL for _snd_lngh0
   0826 21 28 00           3994 	ld	hl,#_snd_lngh0 + 0
   0829 36 47              3995 	ld	(hl),#0x47
   082B 21 29 00           3996 	ld	hl,#_snd_lngh0 + 1
   082E 36 00              3997 	ld	(hl),#0x00
                           3998 ;	LP1.297a.c 256
                           3999 ; genOr
                           4000 ; AOP_HL for _fx_volume
                           4001 ; Type res[2] = l[10]&r[1]
                           4002 ; Size res[1] = l[1]&r[1]
   0830 21 1D 00           4003 	ld	hl,#_fx_volume + 0
   0833 4E                 4004 	ld	c,(hl)
                           4005 ; genCast
                           4006 ; AOP_HL for _snd_env0
   0834 21 2A 00           4007 	ld	hl,#_snd_env0 + 0
   0837 71                 4008 	ld	(hl),c
   0838 21 2B 00           4009 	ld	hl,#_snd_env0 + 1
   083B 36 00              4010 	ld	(hl),#0x00
                           4011 ;	LP1.297a.c 257
                           4012 ; genAssign
                           4013 ; AOP_HL for _snd_cons0
   083D 21 2C 00           4014 	ld	hl,#_snd_cons0 + 0
   0840 36 80              4015 	ld	(hl),#0x80
   0842 21 2D 00           4016 	ld	hl,#_snd_cons0 + 1
   0845 36 00              4017 	ld	(hl),#0x00
                           4018 ; genGoto
   0847 C3 FE 08           4019 	jp	00124$
                           4020 ; genLabel
   084A                    4021 00121$:
                           4022 ;	LP1.297a.c 259
                           4023 ; genCmpEq
                           4024 ; AOP_STK for _instru_test_sloc0_1_0
   084A F8 08              4025 	lda	hl,8(sp)
   084C 7E                 4026 	ld	a,(hl) ; 2
   084D FE 05              4027 	cp	a,#0x05
   084F C2 54 08           4028 	jp	nz,00225$
   0852 18 03              4029 	jr	00226$
   0854                    4030 00225$:
   0854 C3 85 08           4031 	jp	00118$
   0857                    4032 00226$:
                           4033 ;	LP1.297a.c 261
                           4034 ; genAssign
                           4035 ; AOP_HL for _snd_swp0
   0857 21 26 00           4036 	ld	hl,#_snd_swp0 + 0
   085A 36 00              4037 	ld	(hl),#0x00
   085C 21 27 00           4038 	ld	hl,#_snd_swp0 + 1
   085F 36 00              4039 	ld	(hl),#0x00
                           4040 ;	LP1.297a.c 262
                           4041 ; genAssign
                           4042 ; AOP_HL for _snd_lngh0
   0861 21 28 00           4043 	ld	hl,#_snd_lngh0 + 0
   0864 36 87              4044 	ld	(hl),#0x87
   0866 21 29 00           4045 	ld	hl,#_snd_lngh0 + 1
   0869 36 00              4046 	ld	(hl),#0x00
                           4047 ;	LP1.297a.c 263
                           4048 ; genOr
                           4049 ; AOP_HL for _fx_volume
                           4050 ; Type res[2] = l[10]&r[1]
                           4051 ; Size res[1] = l[1]&r[1]
   086B 21 1D 00           4052 	ld	hl,#_fx_volume + 0
   086E 4E                 4053 	ld	c,(hl)
                           4054 ; genCast
                           4055 ; AOP_HL for _snd_env0
   086F 21 2A 00           4056 	ld	hl,#_snd_env0 + 0
   0872 71                 4057 	ld	(hl),c
   0873 21 2B 00           4058 	ld	hl,#_snd_env0 + 1
   0876 36 00              4059 	ld	(hl),#0x00
                           4060 ;	LP1.297a.c 264
                           4061 ; genAssign
                           4062 ; AOP_HL for _snd_cons0
   0878 21 2C 00           4063 	ld	hl,#_snd_cons0 + 0
   087B 36 80              4064 	ld	(hl),#0x80
   087D 21 2D 00           4065 	ld	hl,#_snd_cons0 + 1
   0880 36 00              4066 	ld	(hl),#0x00
                           4067 ; genGoto
   0882 C3 FE 08           4068 	jp	00124$
                           4069 ; genLabel
   0885                    4070 00118$:
                           4071 ;	LP1.297a.c 266
                           4072 ; genCmpEq
                           4073 ; AOP_STK for _instru_test_sloc0_1_0
   0885 F8 08              4074 	lda	hl,8(sp)
   0887 7E                 4075 	ld	a,(hl) ; 2
   0888 FE 06              4076 	cp	a,#0x06
   088A C2 8F 08           4077 	jp	nz,00227$
   088D 18 03              4078 	jr	00228$
   088F                    4079 00227$:
   088F C3 C3 08           4080 	jp	00115$
   0892                    4081 00228$:
                           4082 ;	LP1.297a.c 268
                           4083 ; genAssign
                           4084 ; AOP_HL for _snd_swp0
   0892 21 26 00           4085 	ld	hl,#_snd_swp0 + 0
   0895 36 00              4086 	ld	(hl),#0x00
   0897 21 27 00           4087 	ld	hl,#_snd_swp0 + 1
   089A 36 00              4088 	ld	(hl),#0x00
                           4089 ;	LP1.297a.c 269
                           4090 ; genAssign
                           4091 ; AOP_HL for _snd_lngh0
   089C 21 28 00           4092 	ld	hl,#_snd_lngh0 + 0
   089F 36 07              4093 	ld	(hl),#0x07
   08A1 21 29 00           4094 	ld	hl,#_snd_lngh0 + 1
   08A4 36 00              4095 	ld	(hl),#0x00
                           4096 ;	LP1.297a.c 270
                           4097 ; genOr
                           4098 ; AOP_HL for _fx_volume
                           4099 ; Type res[2] = l[10]&r[1]
                           4100 ; Size res[1] = l[1]&r[1]
   08A6 21 1D 00           4101 	ld	hl,#_fx_volume + 0
   08A9 7E                 4102 	ld	a,(hl)
   08AA F6 07              4103 	or	a,#0x07
   08AC 4F                 4104 	ld	c,a
                           4105 ; genCast
                           4106 ; AOP_HL for _snd_env0
   08AD 21 2A 00           4107 	ld	hl,#_snd_env0 + 0
   08B0 71                 4108 	ld	(hl),c
   08B1 21 2B 00           4109 	ld	hl,#_snd_env0 + 1
   08B4 36 00              4110 	ld	(hl),#0x00
                           4111 ;	LP1.297a.c 271
                           4112 ; genAssign
                           4113 ; AOP_HL for _snd_cons0
   08B6 21 2C 00           4114 	ld	hl,#_snd_cons0 + 0
   08B9 36 80              4115 	ld	(hl),#0x80
   08BB 21 2D 00           4116 	ld	hl,#_snd_cons0 + 1
   08BE 36 00              4117 	ld	(hl),#0x00
                           4118 ; genGoto
   08C0 C3 FE 08           4119 	jp	00124$
                           4120 ; genLabel
   08C3                    4121 00115$:
                           4122 ;	LP1.297a.c 273
                           4123 ; genCmpEq
                           4124 ; AOP_STK for _instru_test_sloc0_1_0
   08C3 F8 08              4125 	lda	hl,8(sp)
   08C5 7E                 4126 	ld	a,(hl) ; 2
   08C6 FE 07              4127 	cp	a,#0x07
   08C8 C2 CD 08           4128 	jp	nz,00229$
   08CB 18 03              4129 	jr	00230$
   08CD                    4130 00229$:
   08CD C3 FE 08           4131 	jp	00124$
   08D0                    4132 00230$:
                           4133 ;	LP1.297a.c 275
                           4134 ; genAssign
                           4135 ; AOP_HL for _snd_swp0
   08D0 21 26 00           4136 	ld	hl,#_snd_swp0 + 0
   08D3 36 00              4137 	ld	(hl),#0x00
   08D5 21 27 00           4138 	ld	hl,#_snd_swp0 + 1
   08D8 36 00              4139 	ld	(hl),#0x00
                           4140 ;	LP1.297a.c 276
                           4141 ; genAssign
                           4142 ; AOP_HL for _snd_lngh0
   08DA 21 28 00           4143 	ld	hl,#_snd_lngh0 + 0
   08DD 36 07              4144 	ld	(hl),#0x07
   08DF 21 29 00           4145 	ld	hl,#_snd_lngh0 + 1
   08E2 36 00              4146 	ld	(hl),#0x00
                           4147 ;	LP1.297a.c 277
                           4148 ; genOr
                           4149 ; AOP_HL for _fx_volume
                           4150 ; Type res[2] = l[10]&r[1]
                           4151 ; Size res[1] = l[1]&r[1]
   08E4 21 1D 00           4152 	ld	hl,#_fx_volume + 0
   08E7 7E                 4153 	ld	a,(hl)
   08E8 F6 07              4154 	or	a,#0x07
   08EA 4F                 4155 	ld	c,a
                           4156 ; genCast
                           4157 ; AOP_HL for _snd_env0
   08EB 21 2A 00           4158 	ld	hl,#_snd_env0 + 0
   08EE 71                 4159 	ld	(hl),c
   08EF 21 2B 00           4160 	ld	hl,#_snd_env0 + 1
   08F2 36 00              4161 	ld	(hl),#0x00
                           4162 ;	LP1.297a.c 278
                           4163 ; genAssign
                           4164 ; AOP_HL for _snd_cons0
   08F4 21 2C 00           4165 	ld	hl,#_snd_cons0 + 0
   08F7 36 80              4166 	ld	(hl),#0x80
   08F9 21 2D 00           4167 	ld	hl,#_snd_cons0 + 1
   08FC 36 00              4168 	ld	(hl),#0x00
                           4169 ; genLabel
   08FE                    4170 00124$:
                           4171 ;	LP1.297a.c 282
                           4172 ; genCmpEq
                           4173 ; AOP_HL for _voice
   08FE 21 10 00           4174 	ld	hl,#_voice + 0
   0901 7E                 4175 	ld	a,(hl) ; 2
   0902 FE 01              4176 	cp	a,#0x01
   0904 C2 11 09           4177 	jp	nz,00231$
   0907 21 11 00           4178 	ld	hl,#_voice + 1
   090A 7E                 4179 	ld	a,(hl) ; 2
                           4180 ; Rule 3
   090B B7                 4181 	or	a,a
   090C C2 11 09           4182 	jp	nz,00231$
   090F 18 03              4183 	jr	00232$
   0911                    4184 00231$:
   0911 C3 C6 0A           4185 	jp	00148$
   0914                    4186 00232$:
                           4187 ;	LP1.297a.c 283
                           4188 ; genRightShift
                           4189 ; AOP_HL for _data_song
                           4190 ; AOP_STK for _instru_test_sloc1_1_0
                           4191 ; shift right 	result 2, left 2
   0914 21 1A 00           4192 	ld	hl,#_data_song + 0
   0917 7E                 4193 	ld	a,(hl)
   0918 F8 06              4194 	lda	hl,6(sp)
   091A 77                 4195 	ld	(hl),a ; 3
   091B 21 1B 00           4196 	ld	hl,#_data_song + 1
   091E 7E                 4197 	ld	a,(hl)
   091F F8 07              4198 	lda	hl,7(sp)
   0921 77                 4199 	ld	(hl),a ; 3
   0922 3E 07              4200 	ld	a,#0x06+1
   0924 18 08              4201 	jr	00234$
   0926                    4202 00233$:
   0926 B7                 4203 	or	a,a
   0927 F8 07              4204 	lda	hl,7(sp)
   0929 CB 1E              4205 	rr	(hl)
   092B 2B                 4206 	dec	hl
   092C CB 1E              4207 	rr	(hl)
   092E                    4208 00234$:
   092E 3D                 4209 	dec	a
   092F 20 F5              4210 	jr	nz,00233$
                           4211 ; genCast
                           4212 ; AOP_STK for _instru_test_sloc1_1_0
   0931 F8 06              4213 	lda	hl,6(sp)
   0933 4E                 4214 	ld	c,(hl)
                           4215 ; genAnd
                           4216 ; AOP_STK for _instru_test_sloc1_1_0
   0934 79                 4217 	ld	a,c
   0935 E6 07              4218 	and	a,#0x07
   0937 77                 4219 	ld	(hl),a ; 3
                           4220 ; genCmpEq
                           4221 ; AOP_STK for _instru_test_sloc1_1_0
   0938 7E                 4222 	ld	a,(hl)
   0939 B7                 4223 	or	a,a
   093A C2 3F 09           4224 	jp	nz,00235$
   093D 18 03              4225 	jr	00236$
   093F                    4226 00235$:
   093F C3 69 09           4227 	jp	00134$
   0942                    4228 00236$:
                           4229 ;	LP1.297a.c 285
                           4230 ; genAssign
                           4231 ; AOP_HL for _snd_lngh1
   0942 21 2E 00           4232 	ld	hl,#_snd_lngh1 + 0
   0945 36 00              4233 	ld	(hl),#0x00
   0947 21 2F 00           4234 	ld	hl,#_snd_lngh1 + 1
   094A 36 00              4235 	ld	(hl),#0x00
                           4236 ;	LP1.297a.c 286
                           4237 ; genOr
                           4238 ; AOP_HL for _fx_volume
                           4239 ; Type res[2] = l[10]&r[1]
                           4240 ; Size res[1] = l[1]&r[1]
   094C 21 1D 00           4241 	ld	hl,#_fx_volume + 0
   094F 7E                 4242 	ld	a,(hl)
   0950 F6 02              4243 	or	a,#0x02
   0952 4F                 4244 	ld	c,a
                           4245 ; genCast
                           4246 ; AOP_HL for _snd_env1
   0953 21 30 00           4247 	ld	hl,#_snd_env1 + 0
   0956 71                 4248 	ld	(hl),c
   0957 21 31 00           4249 	ld	hl,#_snd_env1 + 1
   095A 36 00              4250 	ld	(hl),#0x00
                           4251 ;	LP1.297a.c 287
                           4252 ; genAssign
                           4253 ; AOP_HL for _snd_cons1
   095C 21 32 00           4254 	ld	hl,#_snd_cons1 + 0
   095F 36 80              4255 	ld	(hl),#0x80
   0961 21 33 00           4256 	ld	hl,#_snd_cons1 + 1
   0964 36 00              4257 	ld	(hl),#0x00
                           4258 ; genGoto
   0966 C3 FF 09           4259 	jp	00135$
                           4260 ; genLabel
   0969                    4261 00134$:
                           4262 ;	LP1.297a.c 289
                           4263 ; genCmpEq
                           4264 ; AOP_STK for _instru_test_sloc1_1_0
   0969 F8 06              4265 	lda	hl,6(sp)
   096B 7E                 4266 	ld	a,(hl) ; 2
   096C FE 01              4267 	cp	a,#0x01
   096E C2 73 09           4268 	jp	nz,00237$
   0971 18 03              4269 	jr	00238$
   0973                    4270 00237$:
   0973 C3 9D 09           4271 	jp	00131$
   0976                    4272 00238$:
                           4273 ;	LP1.297a.c 291
                           4274 ; genAssign
                           4275 ; AOP_HL for _snd_lngh1
   0976 21 2E 00           4276 	ld	hl,#_snd_lngh1 + 0
   0979 36 40              4277 	ld	(hl),#0x40
   097B 21 2F 00           4278 	ld	hl,#_snd_lngh1 + 1
   097E 36 00              4279 	ld	(hl),#0x00
                           4280 ;	LP1.297a.c 292
                           4281 ; genOr
                           4282 ; AOP_HL for _fx_volume
                           4283 ; Type res[2] = l[10]&r[1]
                           4284 ; Size res[1] = l[1]&r[1]
   0980 21 1D 00           4285 	ld	hl,#_fx_volume + 0
   0983 7E                 4286 	ld	a,(hl)
   0984 F6 02              4287 	or	a,#0x02
   0986 4F                 4288 	ld	c,a
                           4289 ; genCast
                           4290 ; AOP_HL for _snd_env1
   0987 21 30 00           4291 	ld	hl,#_snd_env1 + 0
   098A 71                 4292 	ld	(hl),c
   098B 21 31 00           4293 	ld	hl,#_snd_env1 + 1
   098E 36 00              4294 	ld	(hl),#0x00
                           4295 ;	LP1.297a.c 293
                           4296 ; genAssign
                           4297 ; AOP_HL for _snd_cons1
   0990 21 32 00           4298 	ld	hl,#_snd_cons1 + 0
   0993 36 80              4299 	ld	(hl),#0x80
   0995 21 33 00           4300 	ld	hl,#_snd_cons1 + 1
   0998 36 00              4301 	ld	(hl),#0x00
                           4302 ; genGoto
   099A C3 FF 09           4303 	jp	00135$
                           4304 ; genLabel
   099D                    4305 00131$:
                           4306 ;	LP1.297a.c 295
                           4307 ; genCmpEq
                           4308 ; AOP_STK for _instru_test_sloc1_1_0
   099D F8 06              4309 	lda	hl,6(sp)
   099F 7E                 4310 	ld	a,(hl) ; 2
   09A0 FE 02              4311 	cp	a,#0x02
   09A2 C2 A7 09           4312 	jp	nz,00239$
   09A5 18 03              4313 	jr	00240$
   09A7                    4314 00239$:
   09A7 C3 D1 09           4315 	jp	00128$
   09AA                    4316 00240$:
                           4317 ;	LP1.297a.c 297
                           4318 ; genAssign
                           4319 ; AOP_HL for _snd_lngh1
   09AA 21 2E 00           4320 	ld	hl,#_snd_lngh1 + 0
   09AD 36 80              4321 	ld	(hl),#0x80
   09AF 21 2F 00           4322 	ld	hl,#_snd_lngh1 + 1
   09B2 36 00              4323 	ld	(hl),#0x00
                           4324 ;	LP1.297a.c 298
                           4325 ; genOr
                           4326 ; AOP_HL for _fx_volume
                           4327 ; Type res[2] = l[10]&r[1]
                           4328 ; Size res[1] = l[1]&r[1]
   09B4 21 1D 00           4329 	ld	hl,#_fx_volume + 0
   09B7 7E                 4330 	ld	a,(hl)
   09B8 F6 02              4331 	or	a,#0x02
   09BA 4F                 4332 	ld	c,a
                           4333 ; genCast
                           4334 ; AOP_HL for _snd_env1
   09BB 21 30 00           4335 	ld	hl,#_snd_env1 + 0
   09BE 71                 4336 	ld	(hl),c
   09BF 21 31 00           4337 	ld	hl,#_snd_env1 + 1
   09C2 36 00              4338 	ld	(hl),#0x00
                           4339 ;	LP1.297a.c 299
                           4340 ; genAssign
                           4341 ; AOP_HL for _snd_cons1
   09C4 21 32 00           4342 	ld	hl,#_snd_cons1 + 0
   09C7 36 80              4343 	ld	(hl),#0x80
   09C9 21 33 00           4344 	ld	hl,#_snd_cons1 + 1
   09CC 36 00              4345 	ld	(hl),#0x00
                           4346 ; genGoto
   09CE C3 FF 09           4347 	jp	00135$
                           4348 ; genLabel
   09D1                    4349 00128$:
                           4350 ;	LP1.297a.c 301
                           4351 ; genCmpEq
                           4352 ; AOP_STK for _instru_test_sloc1_1_0
   09D1 F8 06              4353 	lda	hl,6(sp)
   09D3 7E                 4354 	ld	a,(hl) ; 2
   09D4 FE 03              4355 	cp	a,#0x03
   09D6 C2 DB 09           4356 	jp	nz,00241$
   09D9 18 03              4357 	jr	00242$
   09DB                    4358 00241$:
   09DB C3 FF 09           4359 	jp	00135$
   09DE                    4360 00242$:
                           4361 ;	LP1.297a.c 303
                           4362 ; genAssign
                           4363 ; AOP_HL for _snd_lngh1
   09DE 21 2E 00           4364 	ld	hl,#_snd_lngh1 + 0
   09E1 36 00              4365 	ld	(hl),#0x00
   09E3 21 2F 00           4366 	ld	hl,#_snd_lngh1 + 1
   09E6 36 00              4367 	ld	(hl),#0x00
                           4368 ;	LP1.297a.c 304
                           4369 ; genOr
                           4370 ; AOP_HL for _fx_volume
                           4371 ; Type res[2] = l[10]&r[1]
                           4372 ; Size res[1] = l[1]&r[1]
   09E8 21 1D 00           4373 	ld	hl,#_fx_volume + 0
   09EB 4E                 4374 	ld	c,(hl)
                           4375 ; genCast
                           4376 ; AOP_HL for _snd_env1
   09EC 21 30 00           4377 	ld	hl,#_snd_env1 + 0
   09EF 71                 4378 	ld	(hl),c
   09F0 21 31 00           4379 	ld	hl,#_snd_env1 + 1
   09F3 36 00              4380 	ld	(hl),#0x00
                           4381 ;	LP1.297a.c 305
                           4382 ; genAssign
                           4383 ; AOP_HL for _snd_cons1
   09F5 21 32 00           4384 	ld	hl,#_snd_cons1 + 0
   09F8 36 80              4385 	ld	(hl),#0x80
   09FA 21 33 00           4386 	ld	hl,#_snd_cons1 + 1
   09FD 36 00              4387 	ld	(hl),#0x00
                           4388 ; genLabel
   09FF                    4389 00135$:
                           4390 ;	LP1.297a.c 307
                           4391 ; genCmpEq
                           4392 ; AOP_STK for _instru_test_sloc1_1_0
   09FF F8 06              4393 	lda	hl,6(sp)
   0A01 7E                 4394 	ld	a,(hl) ; 2
   0A02 FE 04              4395 	cp	a,#0x04
   0A04 C2 09 0A           4396 	jp	nz,00243$
   0A07 18 03              4397 	jr	00244$
   0A09                    4398 00243$:
   0A09 C3 30 0A           4399 	jp	00145$
   0A0C                    4400 00244$:
                           4401 ;	LP1.297a.c 309
                           4402 ; genAssign
                           4403 ; AOP_HL for _snd_lngh1
   0A0C 21 2E 00           4404 	ld	hl,#_snd_lngh1 + 0
   0A0F 36 40              4405 	ld	(hl),#0x40
   0A11 21 2F 00           4406 	ld	hl,#_snd_lngh1 + 1
   0A14 36 00              4407 	ld	(hl),#0x00
                           4408 ;	LP1.297a.c 310
                           4409 ; genOr
                           4410 ; AOP_HL for _fx_volume
                           4411 ; Type res[2] = l[10]&r[1]
                           4412 ; Size res[1] = l[1]&r[1]
   0A16 21 1D 00           4413 	ld	hl,#_fx_volume + 0
   0A19 4E                 4414 	ld	c,(hl)
                           4415 ; genCast
                           4416 ; AOP_HL for _snd_env1
   0A1A 21 30 00           4417 	ld	hl,#_snd_env1 + 0
   0A1D 71                 4418 	ld	(hl),c
   0A1E 21 31 00           4419 	ld	hl,#_snd_env1 + 1
   0A21 36 00              4420 	ld	(hl),#0x00
                           4421 ;	LP1.297a.c 311
                           4422 ; genAssign
                           4423 ; AOP_HL for _snd_cons1
   0A23 21 32 00           4424 	ld	hl,#_snd_cons1 + 0
   0A26 36 80              4425 	ld	(hl),#0x80
   0A28 21 33 00           4426 	ld	hl,#_snd_cons1 + 1
   0A2B 36 00              4427 	ld	(hl),#0x00
                           4428 ; genGoto
   0A2D C3 C6 0A           4429 	jp	00148$
                           4430 ; genLabel
   0A30                    4431 00145$:
                           4432 ;	LP1.297a.c 313
                           4433 ; genCmpEq
                           4434 ; AOP_STK for _instru_test_sloc1_1_0
   0A30 F8 06              4435 	lda	hl,6(sp)
   0A32 7E                 4436 	ld	a,(hl) ; 2
   0A33 FE 05              4437 	cp	a,#0x05
   0A35 C2 3A 0A           4438 	jp	nz,00245$
   0A38 18 03              4439 	jr	00246$
   0A3A                    4440 00245$:
   0A3A C3 61 0A           4441 	jp	00142$
   0A3D                    4442 00246$:
                           4443 ;	LP1.297a.c 315
                           4444 ; genAssign
                           4445 ; AOP_HL for _snd_lngh1
   0A3D 21 2E 00           4446 	ld	hl,#_snd_lngh1 + 0
   0A40 36 80              4447 	ld	(hl),#0x80
   0A42 21 2F 00           4448 	ld	hl,#_snd_lngh1 + 1
   0A45 36 00              4449 	ld	(hl),#0x00
                           4450 ;	LP1.297a.c 316
                           4451 ; genOr
                           4452 ; AOP_HL for _fx_volume
                           4453 ; Type res[2] = l[10]&r[1]
                           4454 ; Size res[1] = l[1]&r[1]
   0A47 21 1D 00           4455 	ld	hl,#_fx_volume + 0
   0A4A 4E                 4456 	ld	c,(hl)
                           4457 ; genCast
                           4458 ; AOP_HL for _snd_env1
   0A4B 21 30 00           4459 	ld	hl,#_snd_env1 + 0
   0A4E 71                 4460 	ld	(hl),c
   0A4F 21 31 00           4461 	ld	hl,#_snd_env1 + 1
   0A52 36 00              4462 	ld	(hl),#0x00
                           4463 ;	LP1.297a.c 317
                           4464 ; genAssign
                           4465 ; AOP_HL for _snd_cons1
   0A54 21 32 00           4466 	ld	hl,#_snd_cons1 + 0
   0A57 36 80              4467 	ld	(hl),#0x80
   0A59 21 33 00           4468 	ld	hl,#_snd_cons1 + 1
   0A5C 36 00              4469 	ld	(hl),#0x00
                           4470 ; genGoto
   0A5E C3 C6 0A           4471 	jp	00148$
                           4472 ; genLabel
   0A61                    4473 00142$:
                           4474 ;	LP1.297a.c 319
                           4475 ; genCmpEq
                           4476 ; AOP_STK for _instru_test_sloc1_1_0
   0A61 F8 06              4477 	lda	hl,6(sp)
   0A63 7E                 4478 	ld	a,(hl) ; 2
   0A64 FE 06              4479 	cp	a,#0x06
   0A66 C2 6B 0A           4480 	jp	nz,00247$
   0A69 18 03              4481 	jr	00248$
   0A6B                    4482 00247$:
   0A6B C3 95 0A           4483 	jp	00139$
   0A6E                    4484 00248$:
                           4485 ;	LP1.297a.c 321
                           4486 ; genAssign
                           4487 ; AOP_HL for _snd_lngh1
   0A6E 21 2E 00           4488 	ld	hl,#_snd_lngh1 + 0
   0A71 36 80              4489 	ld	(hl),#0x80
   0A73 21 2F 00           4490 	ld	hl,#_snd_lngh1 + 1
   0A76 36 00              4491 	ld	(hl),#0x00
                           4492 ;	LP1.297a.c 322
                           4493 ; genOr
                           4494 ; AOP_HL for _fx_volume
                           4495 ; Type res[2] = l[10]&r[1]
                           4496 ; Size res[1] = l[1]&r[1]
   0A78 21 1D 00           4497 	ld	hl,#_fx_volume + 0
   0A7B 7E                 4498 	ld	a,(hl)
   0A7C F6 07              4499 	or	a,#0x07
   0A7E 4F                 4500 	ld	c,a
                           4501 ; genCast
                           4502 ; AOP_HL for _snd_env1
   0A7F 21 30 00           4503 	ld	hl,#_snd_env1 + 0
   0A82 71                 4504 	ld	(hl),c
   0A83 21 31 00           4505 	ld	hl,#_snd_env1 + 1
   0A86 36 00              4506 	ld	(hl),#0x00
                           4507 ;	LP1.297a.c 323
                           4508 ; genAssign
                           4509 ; AOP_HL for _snd_cons1
   0A88 21 32 00           4510 	ld	hl,#_snd_cons1 + 0
   0A8B 36 80              4511 	ld	(hl),#0x80
   0A8D 21 33 00           4512 	ld	hl,#_snd_cons1 + 1
   0A90 36 00              4513 	ld	(hl),#0x00
                           4514 ; genGoto
   0A92 C3 C6 0A           4515 	jp	00148$
                           4516 ; genLabel
   0A95                    4517 00139$:
                           4518 ;	LP1.297a.c 325
                           4519 ; genCmpEq
                           4520 ; AOP_STK for _instru_test_sloc1_1_0
   0A95 F8 06              4521 	lda	hl,6(sp)
   0A97 7E                 4522 	ld	a,(hl) ; 2
   0A98 FE 07              4523 	cp	a,#0x07
   0A9A C2 9F 0A           4524 	jp	nz,00249$
   0A9D 18 03              4525 	jr	00250$
   0A9F                    4526 00249$:
   0A9F C3 C6 0A           4527 	jp	00148$
   0AA2                    4528 00250$:
                           4529 ;	LP1.297a.c 327
                           4530 ; genAssign
                           4531 ; AOP_HL for _snd_lngh1
   0AA2 21 2E 00           4532 	ld	hl,#_snd_lngh1 + 0
   0AA5 36 80              4533 	ld	(hl),#0x80
   0AA7 21 2F 00           4534 	ld	hl,#_snd_lngh1 + 1
   0AAA 36 00              4535 	ld	(hl),#0x00
                           4536 ;	LP1.297a.c 328
                           4537 ; genOr
                           4538 ; AOP_HL for _fx_volume
                           4539 ; Type res[2] = l[10]&r[1]
                           4540 ; Size res[1] = l[1]&r[1]
   0AAC 21 1D 00           4541 	ld	hl,#_fx_volume + 0
   0AAF 7E                 4542 	ld	a,(hl)
   0AB0 F6 07              4543 	or	a,#0x07
   0AB2 4F                 4544 	ld	c,a
                           4545 ; genCast
                           4546 ; AOP_HL for _snd_env1
   0AB3 21 30 00           4547 	ld	hl,#_snd_env1 + 0
   0AB6 71                 4548 	ld	(hl),c
   0AB7 21 31 00           4549 	ld	hl,#_snd_env1 + 1
   0ABA 36 00              4550 	ld	(hl),#0x00
                           4551 ;	LP1.297a.c 329
                           4552 ; genAssign
                           4553 ; AOP_HL for _snd_cons1
   0ABC 21 32 00           4554 	ld	hl,#_snd_cons1 + 0
   0ABF 36 80              4555 	ld	(hl),#0x80
   0AC1 21 33 00           4556 	ld	hl,#_snd_cons1 + 1
   0AC4 36 00              4557 	ld	(hl),#0x00
                           4558 ; genLabel
   0AC6                    4559 00148$:
                           4560 ;	LP1.297a.c 333
                           4561 ; genCmpEq
                           4562 ; AOP_HL for _voice
   0AC6 21 10 00           4563 	ld	hl,#_voice + 0
   0AC9 7E                 4564 	ld	a,(hl) ; 2
   0ACA FE 02              4565 	cp	a,#0x02
   0ACC C2 D9 0A           4566 	jp	nz,00251$
   0ACF 21 11 00           4567 	ld	hl,#_voice + 1
   0AD2 7E                 4568 	ld	a,(hl) ; 2
                           4569 ; Rule 3
   0AD3 B7                 4570 	or	a,a
   0AD4 C2 D9 0A           4571 	jp	nz,00251$
   0AD7 18 03              4572 	jr	00252$
   0AD9                    4573 00251$:
   0AD9 C3 9C 0B           4574 	jp	00150$
   0ADC                    4575 00252$:
                           4576 ;	LP1.297a.c 334
                           4577 ; genRightShift
                           4578 ; AOP_HL for _data_song
                           4579 ; AOP_STK for _instru_test_sloc1_1_0
                           4580 ; shift right 	result 2, left 2
   0ADC 21 1A 00           4581 	ld	hl,#_data_song + 0
   0ADF 7E                 4582 	ld	a,(hl)
   0AE0 F8 06              4583 	lda	hl,6(sp)
   0AE2 77                 4584 	ld	(hl),a ; 3
   0AE3 21 1B 00           4585 	ld	hl,#_data_song + 1
   0AE6 7E                 4586 	ld	a,(hl)
   0AE7 F8 07              4587 	lda	hl,7(sp)
   0AE9 77                 4588 	ld	(hl),a ; 3
   0AEA 3E 07              4589 	ld	a,#0x06+1
   0AEC 18 08              4590 	jr	00254$
   0AEE                    4591 00253$:
   0AEE B7                 4592 	or	a,a
   0AEF F8 07              4593 	lda	hl,7(sp)
   0AF1 CB 1E              4594 	rr	(hl)
   0AF3 2B                 4595 	dec	hl
   0AF4 CB 1E              4596 	rr	(hl)
   0AF6                    4597 00254$:
   0AF6 3D                 4598 	dec	a
   0AF7 20 F5              4599 	jr	nz,00253$
                           4600 ; genCast
                           4601 ; AOP_STK for _instru_test_sloc1_1_0
   0AF9 F8 06              4602 	lda	hl,6(sp)
   0AFB 4E                 4603 	ld	c,(hl)
                           4604 ; genAnd
   0AFC 79                 4605 	ld	a,c
   0AFD E6 07              4606 	and	a,#0x07
   0AFF 4F                 4607 	ld	c,a
                           4608 ; genCast
                           4609 ; AOP_STK for _instru_test_instru_number_2_20
   0B00 F8 0B              4610 	lda	hl,11(sp)
   0B02 71                 4611 	ld	(hl),c ; 3
   0B03 79                 4612 	ld	a,c
                           4613 ; genCast: sign extend untested.
   0B04 17                 4614 	rla	
   0B05 9F                 4615 	sbc	a,a
   0B06 23                 4616 	inc	hl
   0B07 77                 4617 	ld	(hl),a ; 3
                           4618 ;	LP1.297a.c 336
                           4619 ; genAssign
                           4620 ; AOP_STK for _instru_test_loop_2_20
   0B08 F8 09              4621 	lda	hl,9(sp)
   0B0A 36 00              4622 	ld	(hl),#0x00 ; 3
   0B0C 23                 4623 	inc	hl
   0B0D 36 00              4624 	ld	(hl),#0x00 ; 3
                           4625 ; genLeftShift
                           4626 ; AOP_STK for _instru_test_instru_number_2_20
                           4627 ; AOP_STK for _instru_test_sloc1_1_0
   0B0F 23                 4628 	inc	hl
   0B10 7E                 4629 	ld	a,(hl)
   0B11 F8 06              4630 	lda	hl,6(sp)
   0B13 77                 4631 	ld	(hl),a ; 3
   0B14 F8 0C              4632 	lda	hl,12(sp)
   0B16 7E                 4633 	ld	a,(hl)
   0B17 F8 07              4634 	lda	hl,7(sp)
   0B19 77                 4635 	ld	(hl),a ; 3
   0B1A 3E 05              4636 	ld	a,#0x04+1
   0B1C 18 08              4637 	jr	00256$
   0B1E                    4638 00255$:
   0B1E B7                 4639 	or	a,a
   0B1F F8 06              4640 	lda	hl,6(sp)
   0B21 CB 16              4641 	rl	(hl)
   0B23 23                 4642 	inc	hl
   0B24 CB 16              4643 	rl	(hl)
   0B26                    4644 00256$:
   0B26 3D                 4645 	dec	a
   0B27 20 F5              4646 	jr	nz,00255$
                           4647 ; genLabel
   0B29                    4648 00175$:
                           4649 ; genCmpLt
                           4650 ; AOP_STK for _instru_test_loop_2_20
   0B29 F8 0A              4651 	lda	hl,10(sp)
   0B2B 7E                 4652 	ld	a,(hl)
   0B2C EE 80              4653 	xor	a,#0x80
   0B2E 5F                 4654 	ld	e,a
   0B2F 16 80              4655 	ld	d,#0x80
   0B31 2B                 4656 	dec	hl
   0B32 7E                 4657 	ld	a,(hl)
   0B33 DE 10              4658 	sbc	a,#0x10 ; 2
   0B35 7B                 4659 	ld	a,e
   0B36 9A                 4660 	sbc	a,d
   0B37 D2 9C 0B           4661 	jp	nc,00150$
                           4662 ;	LP1.297a.c 338
                           4663 ; genCast
                           4664 ; AOP_STK for _instru_test_loop_2_20
                           4665 ; AOP_STK for _instru_test_sloc2_1_0
   0B3A 7E                 4666 	ld	a,(hl)
   0B3B F8 02              4667 	lda	hl,2(sp)
   0B3D 77                 4668 	ld	(hl),a ; 3
   0B3E F8 0A              4669 	lda	hl,10(sp)
   0B40 7E                 4670 	ld	a,(hl)
   0B41 F8 03              4671 	lda	hl,3(sp)
   0B43 77                 4672 	ld	(hl),a ; 3
   0B44 23                 4673 	inc	hl
   0B45 36 00              4674 	ld	(hl),#0x00 ; 3
   0B47 23                 4675 	inc	hl
   0B48 36 00              4676 	ld	(hl),#0x00 ; 3
                           4677 ; genPlus
                           4678 ; AOP_STK for _instru_test_sloc2_1_0
                           4679 ; genPlusIncr
   0B4A F8 02              4680 	lda	hl,2(sp)
   0B4C 7E                 4681 	ld	a,(hl)
   0B4D C6 30              4682 	add	a,#0x30
   0B4F 77                 4683 	ld	(hl),a ; 3
   0B50 23                 4684 	inc	hl
   0B51 7E                 4685 	ld	a,(hl)
   0B52 CE FF              4686 	adc	a,#0xFF
   0B54 77                 4687 	ld	(hl),a ; 3
   0B55 23                 4688 	inc	hl
   0B56 7E                 4689 	ld	a,(hl)
   0B57 CE 00              4690 	adc	a,#0x00
   0B59 77                 4691 	ld	(hl),a ; 3
   0B5A 23                 4692 	inc	hl
   0B5B 7E                 4693 	ld	a,(hl)
   0B5C CE 00              4694 	adc	a,#0x00
   0B5E 77                 4695 	ld	(hl),a ; 3
                           4696 ; genCast
                           4697 ; AOP_STK for _instru_test_sloc2_1_0
                           4698 ; genPlus
                           4699 ; AOP_STK for _instru_test_loop_2_20
                           4700 ; AOP_STK for _instru_test_sloc1_1_0
                           4701 ; AOP_STK for _instru_test_sloc3_1_0
   0B5F F8 09              4702 	lda	hl,9(sp)
   0B61 7E                 4703 	ld	a,(hl)
   0B62 F8 06              4704 	lda	hl,6(sp)
   0B64 86                 4705 	add	a,(hl)
   0B65 F8 00              4706 	lda	hl,0(sp)
   0B67 77                 4707 	ld	(hl),a ; 3
   0B68 F8 0A              4708 	lda	hl,10(sp)
   0B6A 7E                 4709 	ld	a,(hl)
   0B6B F8 07              4710 	lda	hl,7(sp)
   0B6D 8E                 4711 	adc	a,(hl)
   0B6E F8 01              4712 	lda	hl,1(sp)
   0B70 77                 4713 	ld	(hl),a ; 3
                           4714 ; genLeftShift
                           4715 ; AOP_STK for _instru_test_sloc3_1_0
   0B71 B7                 4716 	or	a,a
   0B72 2B                 4717 	dec	hl
   0B73 CB 16              4718 	rl	(hl)
   0B75 23                 4719 	inc	hl
   0B76 CB 16              4720 	rl	(hl)
                           4721 ; genPlus
                           4722 ; AOP_STK for _instru_test_sloc3_1_0
   0B78 3E 3C              4723 	ld	a,#<_wave
   0B7A 2B                 4724 	dec	hl
   0B7B 86                 4725 	add	a,(hl)
   0B7C 5F                 4726 	ld	e,a
   0B7D 3E 00              4727 	ld	a,#>_wave
   0B7F 23                 4728 	inc	hl
   0B80 8E                 4729 	adc	a,(hl)
   0B81 57                 4730 	ld	d,a
                           4731 ; genPointerGet
                           4732 ; AOP_STK for _instru_test_sloc3_1_0
                           4733 ; Removed redundent load
                           4734 ; Removed redundent load
   0B82 1A                 4735 	ld	a,(de)
   0B83 2B                 4736 	dec	hl
   0B84 77                 4737 	ld	(hl),a ; 3
   0B85 13                 4738 	inc	de
   0B86 1A                 4739 	ld	a,(de)
   0B87 23                 4740 	inc	hl
   0B88 77                 4741 	ld	(hl),a ; 3
                           4742 ; genCast
                           4743 ; AOP_STK for _instru_test_sloc3_1_0
   0B89 2B                 4744 	dec	hl
   0B8A 4E                 4745 	ld	c,(hl)
                           4746 ; genAssign (pointer)
                           4747 ; AOP_STK for _instru_test_sloc2_1_0
   0B8B 23                 4748 	inc	hl
   0B8C 23                 4749 	inc	hl
   0B8D 5E                 4750 	ld	e,(hl)
   0B8E 23                 4751 	inc	hl
   0B8F 56                 4752 	ld	d,(hl)
   0B90 79                 4753 	ld	a,c
   0B91 12                 4754 	ld	(de),a
                           4755 ;	LP1.297a.c 336
                           4756 ; genPlus
                           4757 ; AOP_STK for _instru_test_loop_2_20
                           4758 ; genPlusIncr
   0B92 F8 09              4759 	lda	hl,9(sp)
   0B94 34                 4760 	inc	(hl)
   0B95 20 02              4761 	jr	nz,00257$
   0B97 23                 4762 	inc	hl
   0B98 34                 4763 	inc	(hl)
   0B99                    4764 00257$:
                           4765 ; genGoto
   0B99 C3 29 0B           4766 	jp	00175$
                           4767 ; genLabel
   0B9C                    4768 00150$:
                           4769 ;	LP1.297a.c 341
                           4770 ; genCmpEq
                           4771 ; AOP_HL for _voice
   0B9C 21 10 00           4772 	ld	hl,#_voice + 0
   0B9F 7E                 4773 	ld	a,(hl) ; 2
   0BA0 FE 03              4774 	cp	a,#0x03
   0BA2 C2 AF 0B           4775 	jp	nz,00258$
   0BA5 21 11 00           4776 	ld	hl,#_voice + 1
   0BA8 7E                 4777 	ld	a,(hl) ; 2
                           4778 ; Rule 3
   0BA9 B7                 4779 	or	a,a
   0BAA C2 AF 0B           4780 	jp	nz,00258$
   0BAD 18 03              4781 	jr	00259$
   0BAF                    4782 00258$:
   0BAF C3 BD 0D           4783 	jp	00179$
   0BB2                    4784 00259$:
                           4785 ;	LP1.297a.c 342
                           4786 ; genRightShift
                           4787 ; AOP_HL for _data_song
                           4788 ; AOP_STK for _instru_test_sloc3_1_0
                           4789 ; shift right 	result 2, left 2
   0BB2 21 1A 00           4790 	ld	hl,#_data_song + 0
   0BB5 7E                 4791 	ld	a,(hl)
   0BB6 F8 00              4792 	lda	hl,0(sp)
   0BB8 77                 4793 	ld	(hl),a ; 3
   0BB9 21 1B 00           4794 	ld	hl,#_data_song + 1
   0BBC 7E                 4795 	ld	a,(hl)
   0BBD F8 01              4796 	lda	hl,1(sp)
   0BBF 77                 4797 	ld	(hl),a ; 3
   0BC0 3E 07              4798 	ld	a,#0x06+1
   0BC2 18 08              4799 	jr	00261$
   0BC4                    4800 00260$:
   0BC4 B7                 4801 	or	a,a
   0BC5 F8 01              4802 	lda	hl,1(sp)
   0BC7 CB 1E              4803 	rr	(hl)
   0BC9 2B                 4804 	dec	hl
   0BCA CB 1E              4805 	rr	(hl)
   0BCC                    4806 00261$:
   0BCC 3D                 4807 	dec	a
   0BCD 20 F5              4808 	jr	nz,00260$
                           4809 ; genCast
                           4810 ; AOP_STK for _instru_test_sloc3_1_0
   0BCF F8 00              4811 	lda	hl,0(sp)
   0BD1 4E                 4812 	ld	c,(hl)
                           4813 ; genAnd
                           4814 ; AOP_STK for _instru_test_sloc3_1_0
   0BD2 79                 4815 	ld	a,c
   0BD3 E6 07              4816 	and	a,#0x07
   0BD5 77                 4817 	ld	(hl),a ; 3
                           4818 ; genCmpEq
                           4819 ; AOP_STK for _instru_test_sloc3_1_0
   0BD6 7E                 4820 	ld	a,(hl)
   0BD7 B7                 4821 	or	a,a
   0BD8 C2 DD 0B           4822 	jp	nz,00262$
   0BDB 18 03              4823 	jr	00263$
   0BDD                    4824 00262$:
   0BDD C3 11 0C           4825 	jp	00160$
   0BE0                    4826 00263$:
                           4827 ;	LP1.297a.c 345
                           4828 ; genAssign
                           4829 ; AOP_HL for _snd_lngh3
   0BE0 21 34 00           4830 	ld	hl,#_snd_lngh3 + 0
   0BE3 36 01              4831 	ld	(hl),#0x01
   0BE5 21 35 00           4832 	ld	hl,#_snd_lngh3 + 1
   0BE8 36 00              4833 	ld	(hl),#0x00
                           4834 ;	LP1.297a.c 346
                           4835 ; genOr
                           4836 ; AOP_HL for _fx_volume
                           4837 ; Type res[2] = l[10]&r[1]
                           4838 ; Size res[1] = l[1]&r[1]
   0BEA 21 1D 00           4839 	ld	hl,#_fx_volume + 0
   0BED 7E                 4840 	ld	a,(hl)
   0BEE F6 01              4841 	or	a,#0x01
   0BF0 4F                 4842 	ld	c,a
                           4843 ; genCast
                           4844 ; AOP_HL for _snd_env3
   0BF1 21 36 00           4845 	ld	hl,#_snd_env3 + 0
   0BF4 71                 4846 	ld	(hl),c
   0BF5 21 37 00           4847 	ld	hl,#_snd_env3 + 1
   0BF8 36 00              4848 	ld	(hl),#0x00
                           4849 ;	LP1.297a.c 347
                           4850 ; genAssign
                           4851 ; AOP_HL for _snd_poly3
   0BFA 21 38 00           4852 	ld	hl,#_snd_poly3 + 0
   0BFD 36 55              4853 	ld	(hl),#0x55
   0BFF 21 39 00           4854 	ld	hl,#_snd_poly3 + 1
   0C02 36 00              4855 	ld	(hl),#0x00
                           4856 ;	LP1.297a.c 348
                           4857 ; genAssign
                           4858 ; AOP_HL for _snd_cons3
   0C04 21 3A 00           4859 	ld	hl,#_snd_cons3 + 0
   0C07 36 80              4860 	ld	(hl),#0x80
   0C09 21 3B 00           4861 	ld	hl,#_snd_cons3 + 1
   0C0C 36 00              4862 	ld	(hl),#0x00
                           4863 ; genGoto
   0C0E C3 C8 0C           4864 	jp	00161$
                           4865 ; genLabel
   0C11                    4866 00160$:
                           4867 ;	LP1.297a.c 350
                           4868 ; genCmpEq
                           4869 ; AOP_STK for _instru_test_sloc3_1_0
   0C11 F8 00              4870 	lda	hl,0(sp)
   0C13 7E                 4871 	ld	a,(hl) ; 2
   0C14 FE 01              4872 	cp	a,#0x01
   0C16 C2 1B 0C           4873 	jp	nz,00264$
   0C19 18 03              4874 	jr	00265$
   0C1B                    4875 00264$:
   0C1B C3 4F 0C           4876 	jp	00157$
   0C1E                    4877 00265$:
                           4878 ;	LP1.297a.c 353
                           4879 ; genAssign
                           4880 ; AOP_HL for _snd_lngh3
   0C1E 21 34 00           4881 	ld	hl,#_snd_lngh3 + 0
   0C21 36 01              4882 	ld	(hl),#0x01
   0C23 21 35 00           4883 	ld	hl,#_snd_lngh3 + 1
   0C26 36 00              4884 	ld	(hl),#0x00
                           4885 ;	LP1.297a.c 354
                           4886 ; genOr
                           4887 ; AOP_HL for _fx_volume
                           4888 ; Type res[2] = l[10]&r[1]
                           4889 ; Size res[1] = l[1]&r[1]
   0C28 21 1D 00           4890 	ld	hl,#_fx_volume + 0
   0C2B 7E                 4891 	ld	a,(hl)
   0C2C F6 01              4892 	or	a,#0x01
   0C2E 4F                 4893 	ld	c,a
                           4894 ; genCast
                           4895 ; AOP_HL for _snd_env3
   0C2F 21 36 00           4896 	ld	hl,#_snd_env3 + 0
   0C32 71                 4897 	ld	(hl),c
   0C33 21 37 00           4898 	ld	hl,#_snd_env3 + 1
   0C36 36 00              4899 	ld	(hl),#0x00
                           4900 ;	LP1.297a.c 355
                           4901 ; genAssign
                           4902 ; AOP_HL for _snd_poly3
   0C38 21 38 00           4903 	ld	hl,#_snd_poly3 + 0
   0C3B 36 01              4904 	ld	(hl),#0x01
   0C3D 21 39 00           4905 	ld	hl,#_snd_poly3 + 1
   0C40 36 00              4906 	ld	(hl),#0x00
                           4907 ;	LP1.297a.c 356
                           4908 ; genAssign
                           4909 ; AOP_HL for _snd_cons3
   0C42 21 3A 00           4910 	ld	hl,#_snd_cons3 + 0
   0C45 36 80              4911 	ld	(hl),#0x80
   0C47 21 3B 00           4912 	ld	hl,#_snd_cons3 + 1
   0C4A 36 00              4913 	ld	(hl),#0x00
                           4914 ; genGoto
   0C4C C3 C8 0C           4915 	jp	00161$
                           4916 ; genLabel
   0C4F                    4917 00157$:
                           4918 ;	LP1.297a.c 358
                           4919 ; genCmpEq
                           4920 ; AOP_STK for _instru_test_sloc3_1_0
   0C4F F8 00              4921 	lda	hl,0(sp)
   0C51 7E                 4922 	ld	a,(hl) ; 2
   0C52 FE 02              4923 	cp	a,#0x02
   0C54 C2 59 0C           4924 	jp	nz,00266$
   0C57 18 03              4925 	jr	00267$
   0C59                    4926 00266$:
   0C59 C3 8D 0C           4927 	jp	00154$
   0C5C                    4928 00267$:
                           4929 ;	LP1.297a.c 361
                           4930 ; genAssign
                           4931 ; AOP_HL for _snd_lngh3
   0C5C 21 34 00           4932 	ld	hl,#_snd_lngh3 + 0
   0C5F 36 01              4933 	ld	(hl),#0x01
   0C61 21 35 00           4934 	ld	hl,#_snd_lngh3 + 1
   0C64 36 00              4935 	ld	(hl),#0x00
                           4936 ;	LP1.297a.c 362
                           4937 ; genOr
                           4938 ; AOP_HL for _fx_volume
                           4939 ; Type res[2] = l[10]&r[1]
                           4940 ; Size res[1] = l[1]&r[1]
   0C66 21 1D 00           4941 	ld	hl,#_fx_volume + 0
   0C69 7E                 4942 	ld	a,(hl)
   0C6A F6 01              4943 	or	a,#0x01
   0C6C 4F                 4944 	ld	c,a
                           4945 ; genCast
                           4946 ; AOP_HL for _snd_env3
   0C6D 21 36 00           4947 	ld	hl,#_snd_env3 + 0
   0C70 71                 4948 	ld	(hl),c
   0C71 21 37 00           4949 	ld	hl,#_snd_env3 + 1
   0C74 36 00              4950 	ld	(hl),#0x00
                           4951 ;	LP1.297a.c 363
                           4952 ; genAssign
                           4953 ; AOP_HL for _snd_poly3
   0C76 21 38 00           4954 	ld	hl,#_snd_poly3 + 0
   0C79 36 52              4955 	ld	(hl),#0x52
   0C7B 21 39 00           4956 	ld	hl,#_snd_poly3 + 1
   0C7E 36 00              4957 	ld	(hl),#0x00
                           4958 ;	LP1.297a.c 364
                           4959 ; genAssign
                           4960 ; AOP_HL for _snd_cons3
   0C80 21 3A 00           4961 	ld	hl,#_snd_cons3 + 0
   0C83 36 80              4962 	ld	(hl),#0x80
   0C85 21 3B 00           4963 	ld	hl,#_snd_cons3 + 1
   0C88 36 00              4964 	ld	(hl),#0x00
                           4965 ; genGoto
   0C8A C3 C8 0C           4966 	jp	00161$
                           4967 ; genLabel
   0C8D                    4968 00154$:
                           4969 ;	LP1.297a.c 366
                           4970 ; genCmpEq
                           4971 ; AOP_STK for _instru_test_sloc3_1_0
   0C8D F8 00              4972 	lda	hl,0(sp)
   0C8F 7E                 4973 	ld	a,(hl) ; 2
   0C90 FE 03              4974 	cp	a,#0x03
   0C92 C2 97 0C           4975 	jp	nz,00268$
   0C95 18 03              4976 	jr	00269$
   0C97                    4977 00268$:
   0C97 C3 C8 0C           4978 	jp	00161$
   0C9A                    4979 00269$:
                           4980 ;	LP1.297a.c 369
                           4981 ; genAssign
                           4982 ; AOP_HL for _snd_lngh3
   0C9A 21 34 00           4983 	ld	hl,#_snd_lngh3 + 0
   0C9D 36 01              4984 	ld	(hl),#0x01
   0C9F 21 35 00           4985 	ld	hl,#_snd_lngh3 + 1
   0CA2 36 00              4986 	ld	(hl),#0x00
                           4987 ;	LP1.297a.c 370
                           4988 ; genOr
                           4989 ; AOP_HL for _fx_volume
                           4990 ; Type res[2] = l[10]&r[1]
                           4991 ; Size res[1] = l[1]&r[1]
   0CA4 21 1D 00           4992 	ld	hl,#_fx_volume + 0
   0CA7 7E                 4993 	ld	a,(hl)
   0CA8 F6 03              4994 	or	a,#0x03
   0CAA 4F                 4995 	ld	c,a
                           4996 ; genCast
                           4997 ; AOP_HL for _snd_env3
   0CAB 21 36 00           4998 	ld	hl,#_snd_env3 + 0
   0CAE 71                 4999 	ld	(hl),c
   0CAF 21 37 00           5000 	ld	hl,#_snd_env3 + 1
   0CB2 36 00              5001 	ld	(hl),#0x00
                           5002 ;	LP1.297a.c 371
                           5003 ; genAssign
                           5004 ; AOP_HL for _snd_poly3
   0CB4 21 38 00           5005 	ld	hl,#_snd_poly3 + 0
   0CB7 36 02              5006 	ld	(hl),#0x02
   0CB9 21 39 00           5007 	ld	hl,#_snd_poly3 + 1
   0CBC 36 00              5008 	ld	(hl),#0x00
                           5009 ;	LP1.297a.c 372
                           5010 ; genAssign
                           5011 ; AOP_HL for _snd_cons3
   0CBE 21 3A 00           5012 	ld	hl,#_snd_cons3 + 0
   0CC1 36 80              5013 	ld	(hl),#0x80
   0CC3 21 3B 00           5014 	ld	hl,#_snd_cons3 + 1
   0CC6 36 00              5015 	ld	(hl),#0x00
                           5016 ; genLabel
   0CC8                    5017 00161$:
                           5018 ;	LP1.297a.c 374
                           5019 ; genCmpEq
                           5020 ; AOP_STK for _instru_test_sloc3_1_0
   0CC8 F8 00              5021 	lda	hl,0(sp)
   0CCA 7E                 5022 	ld	a,(hl) ; 2
   0CCB FE 04              5023 	cp	a,#0x04
   0CCD C2 D2 0C           5024 	jp	nz,00270$
   0CD0 18 03              5025 	jr	00271$
   0CD2                    5026 00270$:
   0CD2 C3 06 0D           5027 	jp	00171$
   0CD5                    5028 00271$:
                           5029 ;	LP1.297a.c 377
                           5030 ; genAssign
                           5031 ; AOP_HL for _snd_lngh3
   0CD5 21 34 00           5032 	ld	hl,#_snd_lngh3 + 0
   0CD8 36 01              5033 	ld	(hl),#0x01
   0CDA 21 35 00           5034 	ld	hl,#_snd_lngh3 + 1
   0CDD 36 00              5035 	ld	(hl),#0x00
                           5036 ;	LP1.297a.c 378
                           5037 ; genOr
                           5038 ; AOP_HL for _fx_volume
                           5039 ; Type res[2] = l[10]&r[1]
                           5040 ; Size res[1] = l[1]&r[1]
   0CDF 21 1D 00           5041 	ld	hl,#_fx_volume + 0
   0CE2 7E                 5042 	ld	a,(hl)
   0CE3 F6 01              5043 	or	a,#0x01
   0CE5 4F                 5044 	ld	c,a
                           5045 ; genCast
                           5046 ; AOP_HL for _snd_env3
   0CE6 21 36 00           5047 	ld	hl,#_snd_env3 + 0
   0CE9 71                 5048 	ld	(hl),c
   0CEA 21 37 00           5049 	ld	hl,#_snd_env3 + 1
   0CED 36 00              5050 	ld	(hl),#0x00
                           5051 ;	LP1.297a.c 379
                           5052 ; genAssign
                           5053 ; AOP_HL for _snd_poly3
   0CEF 21 38 00           5054 	ld	hl,#_snd_poly3 + 0
   0CF2 36 58              5055 	ld	(hl),#0x58
   0CF4 21 39 00           5056 	ld	hl,#_snd_poly3 + 1
   0CF7 36 00              5057 	ld	(hl),#0x00
                           5058 ;	LP1.297a.c 380
                           5059 ; genAssign
                           5060 ; AOP_HL for _snd_cons3
   0CF9 21 3A 00           5061 	ld	hl,#_snd_cons3 + 0
   0CFC 36 80              5062 	ld	(hl),#0x80
   0CFE 21 3B 00           5063 	ld	hl,#_snd_cons3 + 1
   0D01 36 00              5064 	ld	(hl),#0x00
                           5065 ; genGoto
   0D03 C3 BD 0D           5066 	jp	00179$
                           5067 ; genLabel
   0D06                    5068 00171$:
                           5069 ;	LP1.297a.c 382
                           5070 ; genCmpEq
                           5071 ; AOP_STK for _instru_test_sloc3_1_0
   0D06 F8 00              5072 	lda	hl,0(sp)
   0D08 7E                 5073 	ld	a,(hl) ; 2
   0D09 FE 05              5074 	cp	a,#0x05
   0D0B C2 10 0D           5075 	jp	nz,00272$
   0D0E 18 03              5076 	jr	00273$
   0D10                    5077 00272$:
   0D10 C3 44 0D           5078 	jp	00168$
   0D13                    5079 00273$:
                           5080 ;	LP1.297a.c 385
                           5081 ; genAssign
                           5082 ; AOP_HL for _snd_lngh3
   0D13 21 34 00           5083 	ld	hl,#_snd_lngh3 + 0
   0D16 36 01              5084 	ld	(hl),#0x01
   0D18 21 35 00           5085 	ld	hl,#_snd_lngh3 + 1
   0D1B 36 00              5086 	ld	(hl),#0x00
                           5087 ;	LP1.297a.c 386
                           5088 ; genOr
                           5089 ; AOP_HL for _fx_volume
                           5090 ; Type res[2] = l[10]&r[1]
                           5091 ; Size res[1] = l[1]&r[1]
   0D1D 21 1D 00           5092 	ld	hl,#_fx_volume + 0
   0D20 7E                 5093 	ld	a,(hl)
   0D21 F6 01              5094 	or	a,#0x01
   0D23 4F                 5095 	ld	c,a
                           5096 ; genCast
                           5097 ; AOP_HL for _snd_env3
   0D24 21 36 00           5098 	ld	hl,#_snd_env3 + 0
   0D27 71                 5099 	ld	(hl),c
   0D28 21 37 00           5100 	ld	hl,#_snd_env3 + 1
   0D2B 36 00              5101 	ld	(hl),#0x00
                           5102 ;	LP1.297a.c 387
                           5103 ; genAssign
                           5104 ; AOP_HL for _snd_poly3
   0D2D 21 38 00           5105 	ld	hl,#_snd_poly3 + 0
   0D30 36 59              5106 	ld	(hl),#0x59
   0D32 21 39 00           5107 	ld	hl,#_snd_poly3 + 1
   0D35 36 00              5108 	ld	(hl),#0x00
                           5109 ;	LP1.297a.c 388
                           5110 ; genAssign
                           5111 ; AOP_HL for _snd_cons3
   0D37 21 3A 00           5112 	ld	hl,#_snd_cons3 + 0
   0D3A 36 80              5113 	ld	(hl),#0x80
   0D3C 21 3B 00           5114 	ld	hl,#_snd_cons3 + 1
   0D3F 36 00              5115 	ld	(hl),#0x00
                           5116 ; genGoto
   0D41 C3 BD 0D           5117 	jp	00179$
                           5118 ; genLabel
   0D44                    5119 00168$:
                           5120 ;	LP1.297a.c 390
                           5121 ; genCmpEq
                           5122 ; AOP_STK for _instru_test_sloc3_1_0
   0D44 F8 00              5123 	lda	hl,0(sp)
   0D46 7E                 5124 	ld	a,(hl) ; 2
   0D47 FE 06              5125 	cp	a,#0x06
   0D49 C2 4E 0D           5126 	jp	nz,00274$
   0D4C 18 03              5127 	jr	00275$
   0D4E                    5128 00274$:
   0D4E C3 82 0D           5129 	jp	00165$
   0D51                    5130 00275$:
                           5131 ;	LP1.297a.c 393
                           5132 ; genAssign
                           5133 ; AOP_HL for _snd_lngh3
   0D51 21 34 00           5134 	ld	hl,#_snd_lngh3 + 0
   0D54 36 01              5135 	ld	(hl),#0x01
   0D56 21 35 00           5136 	ld	hl,#_snd_lngh3 + 1
   0D59 36 00              5137 	ld	(hl),#0x00
                           5138 ;	LP1.297a.c 394
                           5139 ; genOr
                           5140 ; AOP_HL for _fx_volume
                           5141 ; Type res[2] = l[10]&r[1]
                           5142 ; Size res[1] = l[1]&r[1]
   0D5B 21 1D 00           5143 	ld	hl,#_fx_volume + 0
   0D5E 7E                 5144 	ld	a,(hl)
   0D5F F6 01              5145 	or	a,#0x01
   0D61 4F                 5146 	ld	c,a
                           5147 ; genCast
                           5148 ; AOP_HL for _snd_env3
   0D62 21 36 00           5149 	ld	hl,#_snd_env3 + 0
   0D65 71                 5150 	ld	(hl),c
   0D66 21 37 00           5151 	ld	hl,#_snd_env3 + 1
   0D69 36 00              5152 	ld	(hl),#0x00
                           5153 ;	LP1.297a.c 395
                           5154 ; genAssign
                           5155 ; AOP_HL for _snd_poly3
   0D6B 21 38 00           5156 	ld	hl,#_snd_poly3 + 0
   0D6E 36 5A              5157 	ld	(hl),#0x5A
   0D70 21 39 00           5158 	ld	hl,#_snd_poly3 + 1
   0D73 36 00              5159 	ld	(hl),#0x00
                           5160 ;	LP1.297a.c 396
                           5161 ; genAssign
                           5162 ; AOP_HL for _snd_cons3
   0D75 21 3A 00           5163 	ld	hl,#_snd_cons3 + 0
   0D78 36 80              5164 	ld	(hl),#0x80
   0D7A 21 3B 00           5165 	ld	hl,#_snd_cons3 + 1
   0D7D 36 00              5166 	ld	(hl),#0x00
                           5167 ; genGoto
   0D7F C3 BD 0D           5168 	jp	00179$
                           5169 ; genLabel
   0D82                    5170 00165$:
                           5171 ;	LP1.297a.c 398
                           5172 ; genCmpEq
                           5173 ; AOP_STK for _instru_test_sloc3_1_0
   0D82 F8 00              5174 	lda	hl,0(sp)
   0D84 7E                 5175 	ld	a,(hl) ; 2
   0D85 FE 07              5176 	cp	a,#0x07
   0D87 C2 8C 0D           5177 	jp	nz,00276$
   0D8A 18 03              5178 	jr	00277$
   0D8C                    5179 00276$:
   0D8C C3 BD 0D           5180 	jp	00179$
   0D8F                    5181 00277$:
                           5182 ;	LP1.297a.c 401
                           5183 ; genAssign
                           5184 ; AOP_HL for _snd_lngh3
   0D8F 21 34 00           5185 	ld	hl,#_snd_lngh3 + 0
   0D92 36 01              5186 	ld	(hl),#0x01
   0D94 21 35 00           5187 	ld	hl,#_snd_lngh3 + 1
   0D97 36 00              5188 	ld	(hl),#0x00
                           5189 ;	LP1.297a.c 402
                           5190 ; genOr
                           5191 ; AOP_HL for _fx_volume
                           5192 ; Type res[2] = l[10]&r[1]
                           5193 ; Size res[1] = l[1]&r[1]
   0D99 21 1D 00           5194 	ld	hl,#_fx_volume + 0
   0D9C 7E                 5195 	ld	a,(hl)
   0D9D F6 03              5196 	or	a,#0x03
   0D9F 4F                 5197 	ld	c,a
                           5198 ; genCast
                           5199 ; AOP_HL for _snd_env3
   0DA0 21 36 00           5200 	ld	hl,#_snd_env3 + 0
   0DA3 71                 5201 	ld	(hl),c
   0DA4 21 37 00           5202 	ld	hl,#_snd_env3 + 1
   0DA7 36 00              5203 	ld	(hl),#0x00
                           5204 ;	LP1.297a.c 403
                           5205 ; genAssign
                           5206 ; AOP_HL for _snd_poly3
   0DA9 21 38 00           5207 	ld	hl,#_snd_poly3 + 0
   0DAC 36 4F              5208 	ld	(hl),#0x4F
   0DAE 21 39 00           5209 	ld	hl,#_snd_poly3 + 1
   0DB1 36 00              5210 	ld	(hl),#0x00
                           5211 ;	LP1.297a.c 404
                           5212 ; genAssign
                           5213 ; AOP_HL for _snd_cons3
   0DB3 21 3A 00           5214 	ld	hl,#_snd_cons3 + 0
   0DB6 36 80              5215 	ld	(hl),#0x80
   0DB8 21 3B 00           5216 	ld	hl,#_snd_cons3 + 1
   0DBB 36 00              5217 	ld	(hl),#0x00
                           5218 ; genLabel
   0DBD                    5219 00179$:
                           5220 ; genEndFunction
   0DBD E8 0D              5221 	lda	sp,13(sp)
   0DBF C1                 5222 	pop bc
   0DC0 C9                 5223 	ret
   0DC1                    5224 ___instru_test_end:
                           5225 ;	LP1.297a.c 412
                           5226 ; genLabel
                           5227 ; genFunction
                           5228 ;	---------------------------------
                           5229 ; Function voice0
                           5230 ; ---------------------------------
   0DC1                    5231 ___voice0_start:
   0DC1                    5232 _voice0:
   0DC1 C5                 5233 	push	bc
   0DC2 E8 FF              5234 	lda sp,-1(sp)
                           5235 ;	LP1.297a.c 415
                           5236 ; genAssign
                           5237 ; AOP_HL for _voice
   0DC4 21 10 00           5238 	ld	hl,#_voice + 0
   0DC7 36 00              5239 	ld	(hl),#0x00
   0DC9 21 11 00           5240 	ld	hl,#_voice + 1
   0DCC 36 00              5241 	ld	(hl),#0x00
                           5242 ;	LP1.297a.c 417
                           5243 ; genLeftShift
                           5244 ; AOP_HL for _step
   0DCE 21 0A 00           5245 	ld	hl,#_step + 0
   0DD1 4E                 5246 	ld	c,(hl)
   0DD2 21 0B 00           5247 	ld	hl,#_step + 1
   0DD5 46                 5248 	ld	b,(hl)
   0DD6 3E 03              5249 	ld	a,#0x02+1
   0DD8 18 05              5250 	jr	00107$
   0DDA                    5251 00106$:
   0DDA B7                 5252 	or	a,a
   0DDB CB 11              5253 	rl	c
   0DDD CB 10              5254 	rl	b
   0DDF                    5255 00107$:
   0DDF 3D                 5256 	dec	a
   0DE0 20 F8              5257 	jr	nz,00106$
                           5258 ; genLeftShift
   0DE2 B7                 5259 	or	a,a
   0DE3 CB 11              5260 	rl	c
   0DE5 CB 10              5261 	rl	b
                           5262 ; genPlus
                           5263 ; AOP_HL for _data_song_ptr
   0DE7 21 06 00           5264 	ld	hl,#_data_song_ptr + 0
   0DEA 7E                 5265 	ld	a,(hl)
   0DEB 81                 5266 	add	a,c
   0DEC 5F                 5267 	ld	e,a
   0DED 21 07 00           5268 	ld	hl,#_data_song_ptr + 1
   0DF0 7E                 5269 	ld	a,(hl)
   0DF1 88                 5270 	adc	a,b
   0DF2 57                 5271 	ld	d,a
                           5272 ; genPointerGet
                           5273 ; AOP_HL for _data_song
                           5274 ; Removed redundent load
                           5275 ; Removed redundent load
   0DF3 1A                 5276 	ld	a,(de)
   0DF4 21 1A 00           5277 	ld	hl,#_data_song + 0
   0DF7 77                 5278 	ld	(hl),a
   0DF8 13                 5279 	inc	de
   0DF9 1A                 5280 	ld	a,(de)
   0DFA 21 1B 00           5281 	ld	hl,#_data_song + 1
   0DFD 77                 5282 	ld	(hl),a
                           5283 ;	LP1.297a.c 419
                           5284 ; genRightShift
                           5285 ; AOP_HL for _data_song
                           5286 ; AOP_HL for _gb_freq
                           5287 ; shift right 	result 2, left 2
   0DFE 7E                 5288 	ld	a,(hl)
   0DFF 21 18 00           5289 	ld	hl,#_gb_freq + 0
   0E02 77                 5290 	ld	(hl),a
   0E03 21 19 00           5291 	ld	hl,#_gb_freq + 1
   0E06 36 00              5292 	ld	(hl),#0x00
                           5293 ;	LP1.297a.c 420
                           5294 ; genRightShift
                           5295 ; AOP_HL for _gb_freq
                           5296 ; shift right 	result 2, left 2
   0E08 B7                 5297 	or	a,a
   0E09 CB 1E              5298 	rr	(hl)
   0E0B 21 18 00           5299 	ld	hl,#_gb_freq + 0
   0E0E CB 1E              5300 	rr	(hl)
                           5301 ;	LP1.297a.c 422
                           5302 ; genCall
   0E10 CD BC 01           5303 	call	_effect_test
                           5304 ;	LP1.297a.c 424
                           5305 ; genCmpEq
                           5306 ; AOP_HL for _gb_freq
   0E13 21 18 00           5307 	ld	hl,#_gb_freq + 0
   0E16 7E                 5308 	ld	a,(hl) ; 2
   0E17 FE 48              5309 	cp	a,#0x48
   0E19 C2 24 0E           5310 	jp	nz,00108$
   0E1C 21 19 00           5311 	ld	hl,#_gb_freq + 1
   0E1F 7E                 5312 	ld	a,(hl) ; 2
                           5313 ; Rule 3
   0E20 B7                 5314 	or	a,a
                           5315 ; Rule 5
   0E21 CA B9 0E           5316 	jp	z,00103$
   0E24                    5317 00108$:
                           5318 ;	LP1.297a.c 426
                           5319 ; genLeftShift
                           5320 ; AOP_HL for _gb_freq
   0E24 21 18 00           5321 	ld	hl,#_gb_freq + 0
   0E27 4E                 5322 	ld	c,(hl)
   0E28 21 19 00           5323 	ld	hl,#_gb_freq + 1
   0E2B 46                 5324 	ld	b,(hl)
   0E2C B7                 5325 	or	a,a
   0E2D CB 11              5326 	rl	c
   0E2F CB 10              5327 	rl	b
                           5328 ; genPlus
   0E31 3E 3C              5329 	ld	a,#<_frequencies
   0E33 81                 5330 	add	a,c
   0E34 5F                 5331 	ld	e,a
   0E35 3E 01              5332 	ld	a,#>_frequencies
   0E37 88                 5333 	adc	a,b
   0E38 57                 5334 	ld	d,a
                           5335 ; genPointerGet
                           5336 ; Removed redundent load
                           5337 ; Removed redundent load
   0E39 1A                 5338 	ld	a,(de)
   0E3A 4F                 5339 	ld	c,a
   0E3B 13                 5340 	inc	de
   0E3C 1A                 5341 	ld	a,(de)
   0E3D 47                 5342 	ld	b,a
                           5343 ; genCast
                           5344 ; AOP_STK for _voice0_sloc0_1_0
   0E3E F8 00              5345 	lda	hl,0(sp)
   0E40 71                 5346 	ld	(hl),c ; 3
                           5347 ; genAnd
                           5348 ; AOP_STK for _voice0_sloc0_1_0
                           5349 ; AOP_HL for _freqLOW
   0E41 7E                 5350 	ld	a,(hl)
   0E42 21 12 00           5351 	ld	hl,#_freqLOW + 0
   0E45 77                 5352 	ld	(hl),a
                           5353 ;	LP1.297a.c 427
                           5354 ; genAnd
   0E46 0E 00              5355 	ld	c,#0x00
   0E48 78                 5356 	ld	a,b
   0E49 E6 07              5357 	and	a,#0x07
   0E4B 47                 5358 	ld	b,a
                           5359 ; genRightShift
                           5360 ; shift right 	result 2, left 2
   0E4C 48                 5361 	ld	c,b
   0E4D 06 00              5362 	ld	b,#0x00
                           5363 ; genCast
                           5364 ; AOP_HL for _freqHI
   0E4F 21 13 00           5365 	ld	hl,#_freqHI + 0
   0E52 71                 5366 	ld	(hl),c
                           5367 ;	LP1.297a.c 429
                           5368 ; genCast
                           5369 ; AOP_HL for _freqHI
   0E53 4E                 5370 	ld	c,(hl)
   0E54 06 00              5371 	ld	b,#0x00
                           5372 ; genAssign
                           5373 ; AOP_HL for _freqHI_v1
   0E56 21 14 00           5374 	ld	hl,#_freqHI_v1 + 0
   0E59 71                 5375 	ld	(hl),c
   0E5A 21 15 00           5376 	ld	hl,#_freqHI_v1 + 1
   0E5D 70                 5377 	ld	(hl),b
                           5378 ;	LP1.297a.c 431
                           5379 ; genCall
   0E5E CD F3 06           5380 	call	_instru_test
                           5381 ;	LP1.297a.c 433
                           5382 ; genAssign
                           5383 ; AOP_SFR for _NR51_REG
   0E61 3E EE              5384 	ld	a,#0xEE
   0E63 E0 00              5385 	ldh	(_NR51_REG+0),a
                           5386 ;	LP1.297a.c 435
                           5387 ; genCast
                           5388 ; AOP_HL for _snd_swp0
                           5389 ; AOP_SFR for _NR10_REG
   0E65 21 26 00           5390 	ld	hl,#_snd_swp0 + 0
   0E68 7E                 5391 	ld	a,(hl)
   0E69 E0 00              5392 	ldh	(_NR10_REG+0),a
                           5393 ;	LP1.297a.c 436
                           5394 ; genCast
                           5395 ; AOP_HL for _snd_lngh0
                           5396 ; AOP_SFR for _NR11_REG
   0E6B 21 28 00           5397 	ld	hl,#_snd_lngh0 + 0
   0E6E 7E                 5398 	ld	a,(hl)
   0E6F E0 00              5399 	ldh	(_NR11_REG+0),a
                           5400 ;	LP1.297a.c 437
                           5401 ; genCast
                           5402 ; AOP_HL for _snd_env0
                           5403 ; AOP_SFR for _NR12_REG
   0E71 21 2A 00           5404 	ld	hl,#_snd_env0 + 0
   0E74 7E                 5405 	ld	a,(hl)
   0E75 E0 00              5406 	ldh	(_NR12_REG+0),a
                           5407 ;	LP1.297a.c 439
                           5408 ; genAssign
                           5409 ; AOP_HL for _freqLOW
                           5410 ; AOP_SFR for _NR13_REG
   0E77 21 12 00           5411 	ld	hl,#_freqLOW + 0
   0E7A 7E                 5412 	ld	a,(hl)
   0E7B E0 00              5413 	ldh	(_NR13_REG+0),a
                           5414 ;	LP1.297a.c 440
                           5415 ; genOr
                           5416 ; AOP_HL for _snd_cons0
                           5417 ; Type res[2] = l[10]&r[2]
                           5418 ; Size res[2] = l[2]&r[2]
   0E7D 79                 5419 	ld	a,c
   0E7E 21 2C 00           5420 	ld	hl,#_snd_cons0 + 0
   0E81 B6                 5421 	or	a,(hl)
   0E82 4F                 5422 	ld	c,a
   0E83 78                 5423 	ld	a,b
   0E84 21 2D 00           5424 	ld	hl,#_snd_cons0 + 1
   0E87 B6                 5425 	or	a,(hl)
   0E88 47                 5426 	ld	b,a
                           5427 ; genCast
                           5428 ; AOP_SFR for _NR14_REG
   0E89 79                 5429 	ld	a,c
   0E8A E0 00              5430 	ldh	(_NR14_REG+0),a
                           5431 ;	LP1.297a.c 442
                           5432 ; genOr
                           5433 ; AOP_HL for _fx_pan0
                           5434 ; AOP_HL for _fx_pan1
                           5435 ; Type res[2] = l[10]&r[10]
                           5436 ; Size res[2] = l[2]&r[2]
   0E8C 21 1E 00           5437 	ld	hl,#_fx_pan0 + 0
   0E8F 7E                 5438 	ld	a,(hl)
   0E90 21 20 00           5439 	ld	hl,#_fx_pan1 + 0
   0E93 B6                 5440 	or	a,(hl)
   0E94 4F                 5441 	ld	c,a
   0E95 21 1F 00           5442 	ld	hl,#_fx_pan0 + 1
   0E98 7E                 5443 	ld	a,(hl)
   0E99 21 21 00           5444 	ld	hl,#_fx_pan1 + 1
   0E9C B6                 5445 	or	a,(hl)
   0E9D 47                 5446 	ld	b,a
                           5447 ; genOr
                           5448 ; AOP_HL for _fx_pan2
                           5449 ; Type res[2] = l[2]&r[10]
                           5450 ; Size res[2] = l[2]&r[2]
   0E9E 79                 5451 	ld	a,c
   0E9F 21 22 00           5452 	ld	hl,#_fx_pan2 + 0
   0EA2 B6                 5453 	or	a,(hl)
   0EA3 4F                 5454 	ld	c,a
   0EA4 78                 5455 	ld	a,b
   0EA5 21 23 00           5456 	ld	hl,#_fx_pan2 + 1
   0EA8 B6                 5457 	or	a,(hl)
   0EA9 47                 5458 	ld	b,a
                           5459 ; genOr
                           5460 ; AOP_HL for _fx_pan3
                           5461 ; Type res[2] = l[2]&r[10]
                           5462 ; Size res[2] = l[2]&r[2]
   0EAA 79                 5463 	ld	a,c
   0EAB 21 24 00           5464 	ld	hl,#_fx_pan3 + 0
   0EAE B6                 5465 	or	a,(hl)
   0EAF 4F                 5466 	ld	c,a
   0EB0 78                 5467 	ld	a,b
   0EB1 21 25 00           5468 	ld	hl,#_fx_pan3 + 1
   0EB4 B6                 5469 	or	a,(hl)
   0EB5 47                 5470 	ld	b,a
                           5471 ; genCast
                           5472 ; AOP_SFR for _NR51_REG
   0EB6 79                 5473 	ld	a,c
   0EB7 E0 00              5474 	ldh	(_NR51_REG+0),a
                           5475 ; genLabel
   0EB9                    5476 00103$:
                           5477 ; genEndFunction
   0EB9 E8 01              5478 	lda	sp,1(sp)
   0EBB C1                 5479 	pop bc
   0EBC C9                 5480 	ret
   0EBD                    5481 ___voice0_end:
                           5482 ;	LP1.297a.c 449
                           5483 ; genLabel
                           5484 ; genFunction
                           5485 ;	---------------------------------
                           5486 ; Function voice1
                           5487 ; ---------------------------------
   0EBD                    5488 ___voice1_start:
   0EBD                    5489 _voice1:
   0EBD C5                 5490 	push	bc
   0EBE E8 FF              5491 	lda sp,-1(sp)
                           5492 ;	LP1.297a.c 452
                           5493 ; genAssign
                           5494 ; AOP_HL for _voice
   0EC0 21 10 00           5495 	ld	hl,#_voice + 0
   0EC3 36 01              5496 	ld	(hl),#0x01
   0EC5 21 11 00           5497 	ld	hl,#_voice + 1
   0EC8 36 00              5498 	ld	(hl),#0x00
                           5499 ;	LP1.297a.c 454
                           5500 ; genLeftShift
                           5501 ; AOP_HL for _step
   0ECA 21 0A 00           5502 	ld	hl,#_step + 0
   0ECD 4E                 5503 	ld	c,(hl)
   0ECE 21 0B 00           5504 	ld	hl,#_step + 1
   0ED1 46                 5505 	ld	b,(hl)
   0ED2 3E 03              5506 	ld	a,#0x02+1
   0ED4 18 05              5507 	jr	00107$
   0ED6                    5508 00106$:
   0ED6 B7                 5509 	or	a,a
   0ED7 CB 11              5510 	rl	c
   0ED9 CB 10              5511 	rl	b
   0EDB                    5512 00107$:
   0EDB 3D                 5513 	dec	a
   0EDC 20 F8              5514 	jr	nz,00106$
                           5515 ; genPlus
                           5516 ; genPlusIncr
   0EDE 03                 5517 	inc	bc
                           5518 ; genLeftShift
   0EDF B7                 5519 	or	a,a
   0EE0 CB 11              5520 	rl	c
   0EE2 CB 10              5521 	rl	b
                           5522 ; genPlus
                           5523 ; AOP_HL for _data_song_ptr
   0EE4 21 06 00           5524 	ld	hl,#_data_song_ptr + 0
   0EE7 7E                 5525 	ld	a,(hl)
   0EE8 81                 5526 	add	a,c
   0EE9 5F                 5527 	ld	e,a
   0EEA 21 07 00           5528 	ld	hl,#_data_song_ptr + 1
   0EED 7E                 5529 	ld	a,(hl)
   0EEE 88                 5530 	adc	a,b
   0EEF 57                 5531 	ld	d,a
                           5532 ; genPointerGet
                           5533 ; AOP_HL for _data_song
                           5534 ; Removed redundent load
                           5535 ; Removed redundent load
   0EF0 1A                 5536 	ld	a,(de)
   0EF1 21 1A 00           5537 	ld	hl,#_data_song + 0
   0EF4 77                 5538 	ld	(hl),a
   0EF5 13                 5539 	inc	de
   0EF6 1A                 5540 	ld	a,(de)
   0EF7 21 1B 00           5541 	ld	hl,#_data_song + 1
   0EFA 77                 5542 	ld	(hl),a
                           5543 ;	LP1.297a.c 456
                           5544 ; genRightShift
                           5545 ; AOP_HL for _data_song
                           5546 ; AOP_HL for _gb_freq
                           5547 ; shift right 	result 2, left 2
   0EFB 7E                 5548 	ld	a,(hl)
   0EFC 21 18 00           5549 	ld	hl,#_gb_freq + 0
   0EFF 77                 5550 	ld	(hl),a
   0F00 21 19 00           5551 	ld	hl,#_gb_freq + 1
   0F03 36 00              5552 	ld	(hl),#0x00
                           5553 ;	LP1.297a.c 457
                           5554 ; genRightShift
                           5555 ; AOP_HL for _gb_freq
                           5556 ; shift right 	result 2, left 2
   0F05 B7                 5557 	or	a,a
   0F06 CB 1E              5558 	rr	(hl)
   0F08 21 18 00           5559 	ld	hl,#_gb_freq + 0
   0F0B CB 1E              5560 	rr	(hl)
                           5561 ;	LP1.297a.c 459
                           5562 ; genCall
   0F0D CD BC 01           5563 	call	_effect_test
                           5564 ;	LP1.297a.c 461
                           5565 ; genCmpEq
                           5566 ; AOP_HL for _gb_freq
   0F10 21 18 00           5567 	ld	hl,#_gb_freq + 0
   0F13 7E                 5568 	ld	a,(hl) ; 2
   0F14 FE 48              5569 	cp	a,#0x48
   0F16 C2 21 0F           5570 	jp	nz,00108$
   0F19 21 19 00           5571 	ld	hl,#_gb_freq + 1
   0F1C 7E                 5572 	ld	a,(hl) ; 2
                           5573 ; Rule 3
   0F1D B7                 5574 	or	a,a
                           5575 ; Rule 5
   0F1E CA B0 0F           5576 	jp	z,00103$
   0F21                    5577 00108$:
                           5578 ;	LP1.297a.c 463
                           5579 ; genLeftShift
                           5580 ; AOP_HL for _gb_freq
   0F21 21 18 00           5581 	ld	hl,#_gb_freq + 0
   0F24 4E                 5582 	ld	c,(hl)
   0F25 21 19 00           5583 	ld	hl,#_gb_freq + 1
   0F28 46                 5584 	ld	b,(hl)
   0F29 B7                 5585 	or	a,a
   0F2A CB 11              5586 	rl	c
   0F2C CB 10              5587 	rl	b
                           5588 ; genPlus
   0F2E 3E 3C              5589 	ld	a,#<_frequencies
   0F30 81                 5590 	add	a,c
   0F31 5F                 5591 	ld	e,a
   0F32 3E 01              5592 	ld	a,#>_frequencies
   0F34 88                 5593 	adc	a,b
   0F35 57                 5594 	ld	d,a
                           5595 ; genPointerGet
                           5596 ; Removed redundent load
                           5597 ; Removed redundent load
   0F36 1A                 5598 	ld	a,(de)
   0F37 4F                 5599 	ld	c,a
   0F38 13                 5600 	inc	de
   0F39 1A                 5601 	ld	a,(de)
   0F3A 47                 5602 	ld	b,a
                           5603 ; genCast
                           5604 ; AOP_STK for _voice1_sloc0_1_0
   0F3B F8 00              5605 	lda	hl,0(sp)
   0F3D 71                 5606 	ld	(hl),c ; 3
                           5607 ; genAnd
                           5608 ; AOP_STK for _voice1_sloc0_1_0
                           5609 ; AOP_HL for _freqLOW
   0F3E 7E                 5610 	ld	a,(hl)
   0F3F 21 12 00           5611 	ld	hl,#_freqLOW + 0
   0F42 77                 5612 	ld	(hl),a
                           5613 ;	LP1.297a.c 464
                           5614 ; genAnd
   0F43 0E 00              5615 	ld	c,#0x00
   0F45 78                 5616 	ld	a,b
   0F46 E6 07              5617 	and	a,#0x07
   0F48 47                 5618 	ld	b,a
                           5619 ; genRightShift
                           5620 ; shift right 	result 2, left 2
   0F49 48                 5621 	ld	c,b
   0F4A 06 00              5622 	ld	b,#0x00
                           5623 ; genCast
                           5624 ; AOP_HL for _freqHI
   0F4C 21 13 00           5625 	ld	hl,#_freqHI + 0
   0F4F 71                 5626 	ld	(hl),c
                           5627 ;	LP1.297a.c 466
                           5628 ; genCast
                           5629 ; AOP_HL for _freqHI
   0F50 4E                 5630 	ld	c,(hl)
   0F51 06 00              5631 	ld	b,#0x00
                           5632 ; genAssign
                           5633 ; AOP_HL for _freqHI_v2
   0F53 21 16 00           5634 	ld	hl,#_freqHI_v2 + 0
   0F56 71                 5635 	ld	(hl),c
   0F57 21 17 00           5636 	ld	hl,#_freqHI_v2 + 1
   0F5A 70                 5637 	ld	(hl),b
                           5638 ;	LP1.297a.c 468
                           5639 ; genCall
   0F5B CD F3 06           5640 	call	_instru_test
                           5641 ;	LP1.297a.c 471
                           5642 ; genAssign
                           5643 ; AOP_SFR for _NR51_REG
   0F5E 3E DD              5644 	ld	a,#0xDD
   0F60 E0 00              5645 	ldh	(_NR51_REG+0),a
                           5646 ;	LP1.297a.c 473
                           5647 ; genCast
                           5648 ; AOP_HL for _snd_lngh1
                           5649 ; AOP_SFR for _NR21_REG
   0F62 21 2E 00           5650 	ld	hl,#_snd_lngh1 + 0
   0F65 7E                 5651 	ld	a,(hl)
   0F66 E0 00              5652 	ldh	(_NR21_REG+0),a
                           5653 ;	LP1.297a.c 474
                           5654 ; genCast
                           5655 ; AOP_HL for _snd_env1
                           5656 ; AOP_SFR for _NR22_REG
   0F68 21 30 00           5657 	ld	hl,#_snd_env1 + 0
   0F6B 7E                 5658 	ld	a,(hl)
   0F6C E0 00              5659 	ldh	(_NR22_REG+0),a
                           5660 ;	LP1.297a.c 475
                           5661 ; genAssign
                           5662 ; AOP_HL for _freqLOW
                           5663 ; AOP_SFR for _NR23_REG
   0F6E 21 12 00           5664 	ld	hl,#_freqLOW + 0
   0F71 7E                 5665 	ld	a,(hl)
   0F72 E0 00              5666 	ldh	(_NR23_REG+0),a
                           5667 ;	LP1.297a.c 476
                           5668 ; genOr
                           5669 ; AOP_HL for _snd_cons1
                           5670 ; Type res[2] = l[10]&r[2]
                           5671 ; Size res[2] = l[2]&r[2]
   0F74 79                 5672 	ld	a,c
   0F75 21 32 00           5673 	ld	hl,#_snd_cons1 + 0
   0F78 B6                 5674 	or	a,(hl)
   0F79 4F                 5675 	ld	c,a
   0F7A 78                 5676 	ld	a,b
   0F7B 21 33 00           5677 	ld	hl,#_snd_cons1 + 1
   0F7E B6                 5678 	or	a,(hl)
   0F7F 47                 5679 	ld	b,a
                           5680 ; genCast
                           5681 ; AOP_SFR for _NR24_REG
   0F80 79                 5682 	ld	a,c
   0F81 E0 00              5683 	ldh	(_NR24_REG+0),a
                           5684 ;	LP1.297a.c 478
                           5685 ; genOr
                           5686 ; AOP_HL for _fx_pan0
                           5687 ; AOP_HL for _fx_pan1
                           5688 ; Type res[2] = l[10]&r[10]
                           5689 ; Size res[2] = l[2]&r[2]
   0F83 21 1E 00           5690 	ld	hl,#_fx_pan0 + 0
   0F86 7E                 5691 	ld	a,(hl)
   0F87 21 20 00           5692 	ld	hl,#_fx_pan1 + 0
   0F8A B6                 5693 	or	a,(hl)
   0F8B 4F                 5694 	ld	c,a
   0F8C 21 1F 00           5695 	ld	hl,#_fx_pan0 + 1
   0F8F 7E                 5696 	ld	a,(hl)
   0F90 21 21 00           5697 	ld	hl,#_fx_pan1 + 1
   0F93 B6                 5698 	or	a,(hl)
   0F94 47                 5699 	ld	b,a
                           5700 ; genOr
                           5701 ; AOP_HL for _fx_pan2
                           5702 ; Type res[2] = l[2]&r[10]
                           5703 ; Size res[2] = l[2]&r[2]
   0F95 79                 5704 	ld	a,c
   0F96 21 22 00           5705 	ld	hl,#_fx_pan2 + 0
   0F99 B6                 5706 	or	a,(hl)
   0F9A 4F                 5707 	ld	c,a
   0F9B 78                 5708 	ld	a,b
   0F9C 21 23 00           5709 	ld	hl,#_fx_pan2 + 1
   0F9F B6                 5710 	or	a,(hl)
   0FA0 47                 5711 	ld	b,a
                           5712 ; genOr
                           5713 ; AOP_HL for _fx_pan3
                           5714 ; Type res[2] = l[2]&r[10]
                           5715 ; Size res[2] = l[2]&r[2]
   0FA1 79                 5716 	ld	a,c
   0FA2 21 24 00           5717 	ld	hl,#_fx_pan3 + 0
   0FA5 B6                 5718 	or	a,(hl)
   0FA6 4F                 5719 	ld	c,a
   0FA7 78                 5720 	ld	a,b
   0FA8 21 25 00           5721 	ld	hl,#_fx_pan3 + 1
   0FAB B6                 5722 	or	a,(hl)
   0FAC 47                 5723 	ld	b,a
                           5724 ; genCast
                           5725 ; AOP_SFR for _NR51_REG
   0FAD 79                 5726 	ld	a,c
   0FAE E0 00              5727 	ldh	(_NR51_REG+0),a
                           5728 ; genLabel
   0FB0                    5729 00103$:
                           5730 ; genEndFunction
   0FB0 E8 01              5731 	lda	sp,1(sp)
   0FB2 C1                 5732 	pop bc
   0FB3 C9                 5733 	ret
   0FB4                    5734 ___voice1_end:
                           5735 ;	LP1.297a.c 485
                           5736 ; genLabel
                           5737 ; genFunction
                           5738 ;	---------------------------------
                           5739 ; Function voice2
                           5740 ; ---------------------------------
   0FB4                    5741 ___voice2_start:
   0FB4                    5742 _voice2:
   0FB4 C5                 5743 	push	bc
   0FB5 E8 FF              5744 	lda sp,-1(sp)
                           5745 ;	LP1.297a.c 488
                           5746 ; genAssign
                           5747 ; AOP_HL for _voice
   0FB7 21 10 00           5748 	ld	hl,#_voice + 0
   0FBA 36 02              5749 	ld	(hl),#0x02
   0FBC 21 11 00           5750 	ld	hl,#_voice + 1
   0FBF 36 00              5751 	ld	(hl),#0x00
                           5752 ;	LP1.297a.c 490
                           5753 ; genLeftShift
                           5754 ; AOP_HL for _step
   0FC1 21 0A 00           5755 	ld	hl,#_step + 0
   0FC4 4E                 5756 	ld	c,(hl)
   0FC5 21 0B 00           5757 	ld	hl,#_step + 1
   0FC8 46                 5758 	ld	b,(hl)
   0FC9 3E 03              5759 	ld	a,#0x02+1
   0FCB 18 05              5760 	jr	00107$
   0FCD                    5761 00106$:
   0FCD B7                 5762 	or	a,a
   0FCE CB 11              5763 	rl	c
   0FD0 CB 10              5764 	rl	b
   0FD2                    5765 00107$:
   0FD2 3D                 5766 	dec	a
   0FD3 20 F8              5767 	jr	nz,00106$
                           5768 ; genPlus
                           5769 ; genPlusIncr
   0FD5 03                 5770 	inc	bc
   0FD6 03                 5771 	inc	bc
                           5772 ; genLeftShift
   0FD7 B7                 5773 	or	a,a
   0FD8 CB 11              5774 	rl	c
   0FDA CB 10              5775 	rl	b
                           5776 ; genPlus
                           5777 ; AOP_HL for _data_song_ptr
   0FDC 21 06 00           5778 	ld	hl,#_data_song_ptr + 0
   0FDF 7E                 5779 	ld	a,(hl)
   0FE0 81                 5780 	add	a,c
   0FE1 5F                 5781 	ld	e,a
   0FE2 21 07 00           5782 	ld	hl,#_data_song_ptr + 1
   0FE5 7E                 5783 	ld	a,(hl)
   0FE6 88                 5784 	adc	a,b
   0FE7 57                 5785 	ld	d,a
                           5786 ; genPointerGet
                           5787 ; AOP_HL for _data_song
                           5788 ; Removed redundent load
                           5789 ; Removed redundent load
   0FE8 1A                 5790 	ld	a,(de)
   0FE9 21 1A 00           5791 	ld	hl,#_data_song + 0
   0FEC 77                 5792 	ld	(hl),a
   0FED 13                 5793 	inc	de
   0FEE 1A                 5794 	ld	a,(de)
   0FEF 21 1B 00           5795 	ld	hl,#_data_song + 1
   0FF2 77                 5796 	ld	(hl),a
                           5797 ;	LP1.297a.c 492
                           5798 ; genRightShift
                           5799 ; AOP_HL for _data_song
                           5800 ; AOP_HL for _gb_freq
                           5801 ; shift right 	result 2, left 2
   0FF3 7E                 5802 	ld	a,(hl)
   0FF4 21 18 00           5803 	ld	hl,#_gb_freq + 0
   0FF7 77                 5804 	ld	(hl),a
   0FF8 21 19 00           5805 	ld	hl,#_gb_freq + 1
   0FFB 36 00              5806 	ld	(hl),#0x00
                           5807 ;	LP1.297a.c 493
                           5808 ; genRightShift
                           5809 ; AOP_HL for _gb_freq
                           5810 ; shift right 	result 2, left 2
   0FFD B7                 5811 	or	a,a
   0FFE CB 1E              5812 	rr	(hl)
   1000 21 18 00           5813 	ld	hl,#_gb_freq + 0
   1003 CB 1E              5814 	rr	(hl)
                           5815 ;	LP1.297a.c 495
                           5816 ; genCall
   1005 CD BC 01           5817 	call	_effect_test
                           5818 ;	LP1.297a.c 497
                           5819 ; genCmpEq
                           5820 ; AOP_HL for _gb_freq
   1008 21 18 00           5821 	ld	hl,#_gb_freq + 0
   100B 7E                 5822 	ld	a,(hl) ; 2
   100C FE 48              5823 	cp	a,#0x48
   100E C2 19 10           5824 	jp	nz,00108$
   1011 21 19 00           5825 	ld	hl,#_gb_freq + 1
   1014 7E                 5826 	ld	a,(hl) ; 2
                           5827 ; Rule 3
   1015 B7                 5828 	or	a,a
                           5829 ; Rule 5
   1016 CA A0 10           5830 	jp	z,00103$
   1019                    5831 00108$:
                           5832 ;	LP1.297a.c 499
                           5833 ; genLeftShift
                           5834 ; AOP_HL for _gb_freq
   1019 21 18 00           5835 	ld	hl,#_gb_freq + 0
   101C 4E                 5836 	ld	c,(hl)
   101D 21 19 00           5837 	ld	hl,#_gb_freq + 1
   1020 46                 5838 	ld	b,(hl)
   1021 B7                 5839 	or	a,a
   1022 CB 11              5840 	rl	c
   1024 CB 10              5841 	rl	b
                           5842 ; genPlus
   1026 3E 3C              5843 	ld	a,#<_frequencies
   1028 81                 5844 	add	a,c
   1029 5F                 5845 	ld	e,a
   102A 3E 01              5846 	ld	a,#>_frequencies
   102C 88                 5847 	adc	a,b
   102D 57                 5848 	ld	d,a
                           5849 ; genPointerGet
                           5850 ; Removed redundent load
                           5851 ; Removed redundent load
   102E 1A                 5852 	ld	a,(de)
   102F 4F                 5853 	ld	c,a
   1030 13                 5854 	inc	de
   1031 1A                 5855 	ld	a,(de)
   1032 47                 5856 	ld	b,a
                           5857 ; genCast
                           5858 ; AOP_STK for _voice2_sloc0_1_0
   1033 F8 00              5859 	lda	hl,0(sp)
   1035 71                 5860 	ld	(hl),c ; 3
                           5861 ; genAnd
                           5862 ; AOP_STK for _voice2_sloc0_1_0
                           5863 ; AOP_HL for _freqLOW
   1036 7E                 5864 	ld	a,(hl)
   1037 21 12 00           5865 	ld	hl,#_freqLOW + 0
   103A 77                 5866 	ld	(hl),a
                           5867 ;	LP1.297a.c 500
                           5868 ; genAnd
   103B 0E 00              5869 	ld	c,#0x00
   103D 78                 5870 	ld	a,b
   103E E6 07              5871 	and	a,#0x07
   1040 47                 5872 	ld	b,a
                           5873 ; genRightShift
                           5874 ; shift right 	result 2, left 2
   1041 48                 5875 	ld	c,b
   1042 06 00              5876 	ld	b,#0x00
                           5877 ; genCast
                           5878 ; AOP_HL for _freqHI
   1044 21 13 00           5879 	ld	hl,#_freqHI + 0
   1047 71                 5880 	ld	(hl),c
                           5881 ;	LP1.297a.c 502
                           5882 ; genAssign
                           5883 ; AOP_SFR for _NR51_REG
   1048 3E BB              5884 	ld	a,#0xBB
   104A E0 00              5885 	ldh	(_NR51_REG+0),a
                           5886 ;	LP1.297a.c 504
                           5887 ; genAssign
                           5888 ; AOP_SFR for _NR30_REG
   104C 3E 00              5889 	ld	a,#0x00
   104E E0 00              5890 	ldh	(_NR30_REG+0),a
                           5891 ;	LP1.297a.c 505
                           5892 ; genAssign
                           5893 ; AOP_SFR for _NR34_REG
   1050 3E 00              5894 	ld	a,#0x00
   1052 E0 00              5895 	ldh	(_NR34_REG+0),a
                           5896 ;	LP1.297a.c 507
                           5897 ; genCall
   1054 CD F3 06           5898 	call	_instru_test
                           5899 ;	LP1.297a.c 509
                           5900 ; genAssign
                           5901 ; AOP_SFR for _NR31_REG
   1057 3E FF              5902 	ld	a,#0xFF
   1059 E0 00              5903 	ldh	(_NR31_REG+0),a
                           5904 ;	LP1.297a.c 510
                           5905 ; genAssign
                           5906 ; AOP_HL for _fx_volume
                           5907 ; AOP_SFR for _NR32_REG
   105B 21 1D 00           5908 	ld	hl,#_fx_volume + 0
   105E 7E                 5909 	ld	a,(hl)
   105F E0 00              5910 	ldh	(_NR32_REG+0),a
                           5911 ;	LP1.297a.c 512
                           5912 ; genAssign
                           5913 ; AOP_SFR for _NR30_REG
   1061 3E 80              5914 	ld	a,#0x80
   1063 E0 00              5915 	ldh	(_NR30_REG+0),a
                           5916 ;	LP1.297a.c 514
                           5917 ; genAssign
                           5918 ; AOP_HL for _freqLOW
                           5919 ; AOP_SFR for _NR33_REG
   1065 21 12 00           5920 	ld	hl,#_freqLOW + 0
   1068 7E                 5921 	ld	a,(hl)
   1069 E0 00              5922 	ldh	(_NR33_REG+0),a
                           5923 ;	LP1.297a.c 515
                           5924 ; genOr
                           5925 ; AOP_HL for _freqHI
                           5926 ; AOP_SFR for _NR34_REG
                           5927 ; Type res[4] = l[1]&r[10]
                           5928 ; Size res[1] = l[1]&r[1]
   106B 21 13 00           5929 	ld	hl,#_freqHI + 0
   106E 7E                 5930 	ld	a,(hl)
   106F F6 80              5931 	or	a,#0x80
   1071 E0 00              5932 	ldh	(_NR34_REG+0),a
                           5933 ;	LP1.297a.c 517
                           5934 ; genOr
                           5935 ; AOP_HL for _fx_pan0
                           5936 ; AOP_HL for _fx_pan1
                           5937 ; Type res[2] = l[10]&r[10]
                           5938 ; Size res[2] = l[2]&r[2]
   1073 21 1E 00           5939 	ld	hl,#_fx_pan0 + 0
   1076 7E                 5940 	ld	a,(hl)
   1077 21 20 00           5941 	ld	hl,#_fx_pan1 + 0
   107A B6                 5942 	or	a,(hl)
   107B 4F                 5943 	ld	c,a
   107C 21 1F 00           5944 	ld	hl,#_fx_pan0 + 1
   107F 7E                 5945 	ld	a,(hl)
   1080 21 21 00           5946 	ld	hl,#_fx_pan1 + 1
   1083 B6                 5947 	or	a,(hl)
   1084 47                 5948 	ld	b,a
                           5949 ; genOr
                           5950 ; AOP_HL for _fx_pan2
                           5951 ; Type res[2] = l[2]&r[10]
                           5952 ; Size res[2] = l[2]&r[2]
   1085 79                 5953 	ld	a,c
   1086 21 22 00           5954 	ld	hl,#_fx_pan2 + 0
   1089 B6                 5955 	or	a,(hl)
   108A 4F                 5956 	ld	c,a
   108B 78                 5957 	ld	a,b
   108C 21 23 00           5958 	ld	hl,#_fx_pan2 + 1
   108F B6                 5959 	or	a,(hl)
   1090 47                 5960 	ld	b,a
                           5961 ; genOr
                           5962 ; AOP_HL for _fx_pan3
                           5963 ; Type res[2] = l[2]&r[10]
                           5964 ; Size res[2] = l[2]&r[2]
   1091 79                 5965 	ld	a,c
   1092 21 24 00           5966 	ld	hl,#_fx_pan3 + 0
   1095 B6                 5967 	or	a,(hl)
   1096 4F                 5968 	ld	c,a
   1097 78                 5969 	ld	a,b
   1098 21 25 00           5970 	ld	hl,#_fx_pan3 + 1
   109B B6                 5971 	or	a,(hl)
   109C 47                 5972 	ld	b,a
                           5973 ; genCast
                           5974 ; AOP_SFR for _NR51_REG
   109D 79                 5975 	ld	a,c
   109E E0 00              5976 	ldh	(_NR51_REG+0),a
                           5977 ; genLabel
   10A0                    5978 00103$:
                           5979 ; genEndFunction
   10A0 E8 01              5980 	lda	sp,1(sp)
   10A2 C1                 5981 	pop bc
   10A3 C9                 5982 	ret
   10A4                    5983 ___voice2_end:
                           5984 ;	LP1.297a.c 523
                           5985 ; genLabel
                           5986 ; genFunction
                           5987 ;	---------------------------------
                           5988 ; Function voice3
                           5989 ; ---------------------------------
   10A4                    5990 ___voice3_start:
   10A4                    5991 _voice3:
   10A4 C5                 5992 	push	bc
                           5993 ;	LP1.297a.c 527
                           5994 ; genAssign
                           5995 ; AOP_HL for _voice
   10A5 21 10 00           5996 	ld	hl,#_voice + 0
   10A8 36 03              5997 	ld	(hl),#0x03
   10AA 21 11 00           5998 	ld	hl,#_voice + 1
   10AD 36 00              5999 	ld	(hl),#0x00
                           6000 ;	LP1.297a.c 529
                           6001 ; genLeftShift
                           6002 ; AOP_HL for _step
   10AF 21 0A 00           6003 	ld	hl,#_step + 0
   10B2 4E                 6004 	ld	c,(hl)
   10B3 21 0B 00           6005 	ld	hl,#_step + 1
   10B6 46                 6006 	ld	b,(hl)
   10B7 3E 03              6007 	ld	a,#0x02+1
   10B9 18 05              6008 	jr	00107$
   10BB                    6009 00106$:
   10BB B7                 6010 	or	a,a
   10BC CB 11              6011 	rl	c
   10BE CB 10              6012 	rl	b
   10C0                    6013 00107$:
   10C0 3D                 6014 	dec	a
   10C1 20 F8              6015 	jr	nz,00106$
                           6016 ; genPlus
                           6017 ; genPlusIncr
   10C3 03                 6018 	inc	bc
   10C4 03                 6019 	inc	bc
   10C5 03                 6020 	inc	bc
                           6021 ; genLeftShift
   10C6 B7                 6022 	or	a,a
   10C7 CB 11              6023 	rl	c
   10C9 CB 10              6024 	rl	b
                           6025 ; genPlus
                           6026 ; AOP_HL for _data_song_ptr
   10CB 21 06 00           6027 	ld	hl,#_data_song_ptr + 0
   10CE 7E                 6028 	ld	a,(hl)
   10CF 81                 6029 	add	a,c
   10D0 5F                 6030 	ld	e,a
   10D1 21 07 00           6031 	ld	hl,#_data_song_ptr + 1
   10D4 7E                 6032 	ld	a,(hl)
   10D5 88                 6033 	adc	a,b
   10D6 57                 6034 	ld	d,a
                           6035 ; genPointerGet
                           6036 ; AOP_HL for _data_song
                           6037 ; Removed redundent load
                           6038 ; Removed redundent load
   10D7 1A                 6039 	ld	a,(de)
   10D8 21 1A 00           6040 	ld	hl,#_data_song + 0
   10DB 77                 6041 	ld	(hl),a
   10DC 13                 6042 	inc	de
   10DD 1A                 6043 	ld	a,(de)
   10DE 21 1B 00           6044 	ld	hl,#_data_song + 1
   10E1 77                 6045 	ld	(hl),a
                           6046 ;	LP1.297a.c 531
                           6047 ; genRightShift
                           6048 ; AOP_HL for _data_song
                           6049 ; AOP_HL for _gb_freq
                           6050 ; shift right 	result 2, left 2
   10E2 7E                 6051 	ld	a,(hl)
   10E3 21 18 00           6052 	ld	hl,#_gb_freq + 0
   10E6 77                 6053 	ld	(hl),a
   10E7 21 19 00           6054 	ld	hl,#_gb_freq + 1
   10EA 36 00              6055 	ld	(hl),#0x00
                           6056 ;	LP1.297a.c 532
                           6057 ; genRightShift
                           6058 ; AOP_HL for _gb_freq
                           6059 ; shift right 	result 2, left 2
   10EC B7                 6060 	or	a,a
   10ED CB 1E              6061 	rr	(hl)
   10EF 21 18 00           6062 	ld	hl,#_gb_freq + 0
   10F2 CB 1E              6063 	rr	(hl)
                           6064 ;	LP1.297a.c 534
                           6065 ; genCall
   10F4 CD BC 01           6066 	call	_effect_test
                           6067 ;	LP1.297a.c 536
                           6068 ; genCmpEq
                           6069 ; AOP_HL for _gb_freq
   10F7 21 18 00           6070 	ld	hl,#_gb_freq + 0
   10FA 7E                 6071 	ld	a,(hl) ; 2
   10FB FE 48              6072 	cp	a,#0x48
   10FD C2 08 11           6073 	jp	nz,00108$
   1100 21 19 00           6074 	ld	hl,#_gb_freq + 1
   1103 7E                 6075 	ld	a,(hl) ; 2
                           6076 ; Rule 3
   1104 B7                 6077 	or	a,a
                           6078 ; Rule 5
   1105 CA 54 11           6079 	jp	z,00103$
   1108                    6080 00108$:
                           6081 ;	LP1.297a.c 538
                           6082 ; genCall
   1108 CD F3 06           6083 	call	_instru_test
                           6084 ;	LP1.297a.c 540
                           6085 ; genAssign
                           6086 ; AOP_SFR for _NR51_REG
   110B 3E 77              6087 	ld	a,#0x77
   110D E0 00              6088 	ldh	(_NR51_REG+0),a
                           6089 ;	LP1.297a.c 542
                           6090 ; genCast
                           6091 ; AOP_HL for _snd_lngh3
                           6092 ; AOP_SFR for _NR41_REG
   110F 21 34 00           6093 	ld	hl,#_snd_lngh3 + 0
   1112 7E                 6094 	ld	a,(hl)
   1113 E0 00              6095 	ldh	(_NR41_REG+0),a
                           6096 ;	LP1.297a.c 543
                           6097 ; genCast
                           6098 ; AOP_HL for _snd_env3
                           6099 ; AOP_SFR for _NR42_REG
   1115 21 36 00           6100 	ld	hl,#_snd_env3 + 0
   1118 7E                 6101 	ld	a,(hl)
   1119 E0 00              6102 	ldh	(_NR42_REG+0),a
                           6103 ;	LP1.297a.c 544
                           6104 ; genCast
                           6105 ; AOP_HL for _snd_poly3
                           6106 ; AOP_SFR for _NR43_REG
   111B 21 38 00           6107 	ld	hl,#_snd_poly3 + 0
   111E 7E                 6108 	ld	a,(hl)
   111F E0 00              6109 	ldh	(_NR43_REG+0),a
                           6110 ;	LP1.297a.c 545
                           6111 ; genCast
                           6112 ; AOP_HL for _snd_cons3
                           6113 ; AOP_SFR for _NR44_REG
   1121 21 3A 00           6114 	ld	hl,#_snd_cons3 + 0
   1124 7E                 6115 	ld	a,(hl)
   1125 E0 00              6116 	ldh	(_NR44_REG+0),a
                           6117 ;	LP1.297a.c 547
                           6118 ; genOr
                           6119 ; AOP_HL for _fx_pan0
                           6120 ; AOP_HL for _fx_pan1
                           6121 ; Type res[2] = l[10]&r[10]
                           6122 ; Size res[2] = l[2]&r[2]
   1127 21 1E 00           6123 	ld	hl,#_fx_pan0 + 0
   112A 7E                 6124 	ld	a,(hl)
   112B 21 20 00           6125 	ld	hl,#_fx_pan1 + 0
   112E B6                 6126 	or	a,(hl)
   112F 4F                 6127 	ld	c,a
   1130 21 1F 00           6128 	ld	hl,#_fx_pan0 + 1
   1133 7E                 6129 	ld	a,(hl)
   1134 21 21 00           6130 	ld	hl,#_fx_pan1 + 1
   1137 B6                 6131 	or	a,(hl)
   1138 47                 6132 	ld	b,a
                           6133 ; genOr
                           6134 ; AOP_HL for _fx_pan2
                           6135 ; Type res[2] = l[2]&r[10]
                           6136 ; Size res[2] = l[2]&r[2]
   1139 79                 6137 	ld	a,c
   113A 21 22 00           6138 	ld	hl,#_fx_pan2 + 0
   113D B6                 6139 	or	a,(hl)
   113E 4F                 6140 	ld	c,a
   113F 78                 6141 	ld	a,b
   1140 21 23 00           6142 	ld	hl,#_fx_pan2 + 1
   1143 B6                 6143 	or	a,(hl)
   1144 47                 6144 	ld	b,a
                           6145 ; genOr
                           6146 ; AOP_HL for _fx_pan3
                           6147 ; Type res[2] = l[2]&r[10]
                           6148 ; Size res[2] = l[2]&r[2]
   1145 79                 6149 	ld	a,c
   1146 21 24 00           6150 	ld	hl,#_fx_pan3 + 0
   1149 B6                 6151 	or	a,(hl)
   114A 4F                 6152 	ld	c,a
   114B 78                 6153 	ld	a,b
   114C 21 25 00           6154 	ld	hl,#_fx_pan3 + 1
   114F B6                 6155 	or	a,(hl)
   1150 47                 6156 	ld	b,a
                           6157 ; genCast
                           6158 ; AOP_SFR for _NR51_REG
   1151 79                 6159 	ld	a,c
   1152 E0 00              6160 	ldh	(_NR51_REG+0),a
                           6161 ; genLabel
   1154                    6162 00103$:
                           6163 ; genEndFunction
   1154 C1                 6164 	pop	bc
   1155 C9                 6165 	ret
   1156                    6166 ___voice3_end:
                           6167 ;	LP1.297a.c 556
                           6168 ; genLabel
                           6169 ; genFunction
                           6170 ;	---------------------------------
                           6171 ; Function music
                           6172 ; ---------------------------------
   1156                    6173 ___music_start:
   1156                    6174 _music:
   1156 C5                 6175 	push	bc
                           6176 ;	LP1.297a.c 559
                           6177 ; genCmpEq
                           6178 ; AOP_HL for _song_nbr
   1157 21 04 00           6179 	ld	hl,#_song_nbr + 0
   115A 7E                 6180 	ld	a,(hl)
   115B 21 05 00           6181 	ld	hl,#_song_nbr + 1
   115E B6                 6182 	or	a,(hl)
   115F C2 64 11           6183 	jp	nz,00112$
   1162 18 03              6184 	jr	00113$
   1164                    6185 00112$:
   1164 C3 7D 11           6186 	jp	00102$
   1167                    6187 00113$:
                           6188 ;	LP1.297a.c 560
                           6189 ; genAssign
   1167 11 00 00           6190 	ld	de,#0x0000
                           6191 ; genAssign (pointer)
   116A 3E 0A              6192 	ld	a,#0x0A
   116C 12                 6193 	ld	(de),a
                           6194 ;	LP1.297a.c 561
                           6195 ; genAssign
   116D 11 00 20           6196 	ld	de,#0x2000
                           6197 ; genAssign (pointer)
   1170 3E 01              6198 	ld	a,#0x01
   1172 12                 6199 	ld	(de),a
                           6200 ;	LP1.297a.c 562
                           6201 ; genAssign
                           6202 ; AOP_HL for _nbr_patern
   1173 21 02 00           6203 	ld	hl,#_nbr_patern + 0
   1176 36 09              6204 	ld	(hl),#0x09
   1178 21 03 00           6205 	ld	hl,#_nbr_patern + 1
   117B 36 00              6206 	ld	(hl),#0x00
                           6207 ; genLabel
   117D                    6208 00102$:
                           6209 ;	LP1.297a.c 573
                           6210 ; genCall
   117D CD C1 0D           6211 	call	_voice0
                           6212 ;	LP1.297a.c 574
                           6213 ; genCall
   1180 CD BD 0E           6214 	call	_voice1
                           6215 ;	LP1.297a.c 575
                           6216 ; genCall
   1183 CD B4 0F           6217 	call	_voice2
                           6218 ;	LP1.297a.c 576
                           6219 ; genCall
   1186 CD A4 10           6220 	call	_voice3
                           6221 ;	LP1.297a.c 578
                           6222 ; genPlus
                           6223 ; AOP_HL for _step
                           6224 ; genPlusIncr
   1189 21 0A 00           6225 	ld	hl,#_step + 0
   118C 34                 6226 	inc	(hl)
   118D 20 04              6227 	jr	nz,00114$
   118F 21 0B 00           6228 	ld	hl,#_step + 1
   1192 34                 6229 	inc	(hl)
   1193                    6230 00114$:
                           6231 ;	LP1.297a.c 579
                           6232 ; genCmpEq
                           6233 ; AOP_HL for _step
   1193 21 0A 00           6234 	ld	hl,#_step + 0
   1196 7E                 6235 	ld	a,(hl) ; 2
   1197 FE 40              6236 	cp	a,#0x40
   1199 C2 A6 11           6237 	jp	nz,00115$
   119C 21 0B 00           6238 	ld	hl,#_step + 1
   119F 7E                 6239 	ld	a,(hl) ; 2
                           6240 ; Rule 3
   11A0 B7                 6241 	or	a,a
   11A1 C2 A6 11           6242 	jp	nz,00115$
   11A4 18 03              6243 	jr	00116$
   11A6                    6244 00115$:
   11A6 C3 E2 11           6245 	jp	00106$
   11A9                    6246 00116$:
                           6247 ;	LP1.297a.c 580
                           6248 ; genAssign
                           6249 ; AOP_HL for _step
   11A9 21 0A 00           6250 	ld	hl,#_step + 0
   11AC 36 00              6251 	ld	(hl),#0x00
   11AE 21 0B 00           6252 	ld	hl,#_step + 1
   11B1 36 00              6253 	ld	(hl),#0x00
                           6254 ;	LP1.297a.c 581
                           6255 ; genPlus
                           6256 ; AOP_HL for _patern
                           6257 ; genPlusIncr
   11B3 21 00 00           6258 	ld	hl,#_patern + 0
   11B6 34                 6259 	inc	(hl)
   11B7 20 04              6260 	jr	nz,00117$
   11B9 21 01 00           6261 	ld	hl,#_patern + 1
   11BC 34                 6262 	inc	(hl)
   11BD                    6263 00117$:
                           6264 ;	LP1.297a.c 582
                           6265 ; genCmpLt
                           6266 ; AOP_HL for _patern
                           6267 ; AOP_HL for _nbr_patern
   11BD 21 01 00           6268 	ld	hl,#_patern + 1
   11C0 7E                 6269 	ld	a,(hl)
   11C1 EE 80              6270 	xor	a,#0x80
   11C3 5F                 6271 	ld	e,a
   11C4 21 03 00           6272 	ld	hl,#_nbr_patern + 1
   11C7 7E                 6273 	ld	a,(hl)
   11C8 EE 80              6274 	xor	a,#0x80
   11CA 57                 6275 	ld	d,a
   11CB 21 00 00           6276 	ld	hl,#_patern + 0
   11CE 7E                 6277 	ld	a,(hl)
   11CF 21 02 00           6278 	ld	hl,#_nbr_patern + 0
   11D2 9E                 6279 	sbc	a,(hl) ; 2
   11D3 7B                 6280 	ld	a,e
   11D4 9A                 6281 	sbc	a,d
   11D5 DA E2 11           6282 	jp	c,00106$
                           6283 ;	LP1.297a.c 583
                           6284 ; genAssign
                           6285 ; AOP_HL for _patern
   11D8 21 00 00           6286 	ld	hl,#_patern + 0
   11DB 36 00              6287 	ld	(hl),#0x00
   11DD 21 01 00           6288 	ld	hl,#_patern + 1
   11E0 36 00              6289 	ld	(hl),#0x00
                           6290 ; genLabel
   11E2                    6291 00106$:
                           6292 ;	LP1.297a.c 587
                           6293 ; genCall
   11E2 CD 00 00           6294 	call	_patern_definition
                           6295 ;	LP1.297a.c 589
                           6296 ; genAssign
   11E5 11 00 00           6297 	ld	de,#0x0000
                           6298 ; genAssign (pointer)
   11E8 3E 00              6299 	ld	a,#0x00
   11EA 12                 6300 	ld	(de),a
                           6301 ; genLabel
   11EB                    6302 00107$:
                           6303 ; genEndFunction
   11EB C1                 6304 	pop	bc
   11EC C9                 6305 	ret
   11ED                    6306 ___music_end:
                           6307 ;	mypaint.c 266
                           6308 ; genLabel
                           6309 ; genFunction
                           6310 ;	---------------------------------
                           6311 ; Function set_cursor
                           6312 ; ---------------------------------
   11ED                    6313 ___set_cursor_start:
   11ED                    6314 _set_cursor:
   11ED C5                 6315 	push	bc
   11EE E8 F1              6316 	lda sp,-15(sp)
                           6317 ;	mypaint.c 270
                           6318 ; genAssign
                           6319 ; AOP_STK for _set_cursor_i_1_1
   11F0 F8 0C              6320 	lda	hl,12(sp)
   11F2 36 00              6321 	ld	(hl),#0x00 ; 3
                           6322 ;	mypaint.c 271
                           6323 ; genAssign
                           6324 ; AOP_STK for _set_cursor_x_1_1
   11F4 23                 6325 	inc	hl
   11F5 23                 6326 	inc	hl
   11F6 36 00              6327 	ld	(hl),#0x00 ; 3
                           6328 ; genLabel
   11F8                    6329 00105$:
                           6330 ; genIpush
   11F8 3E 05              6331 	ld	a,#0x05
   11FA F5                 6332 	push	af
   11FB 33                 6333 	inc	sp
                           6334 ; genIpush
                           6335 ; AOP_HL for _current_cursor
   11FC 21 CF 04           6336 	ld	hl,#_current_cursor + 0
   11FF 7E                 6337 	ld	a,(hl)
   1200 F5                 6338 	push	af
   1201 33                 6339 	inc	sp
                           6340 ; genCall
   1202 CD 00 00           6341 	call	__muluchar
   1205 43                 6342 	ld	b,e
   1206 E8 02              6343 	lda	sp,2(sp)
                           6344 ; genPlus
                           6345 ; AOP_STK for _set_cursor_sloc0_1_0
   1208 3E E9              6346 	ld	a,#<_cursors
   120A 80                 6347 	add	a,b
   120B F8 0A              6348 	lda	hl,10(sp)
   120D 77                 6349 	ld	(hl),a ; 3
   120E 3E 25              6350 	ld	a,#>_cursors
   1210 CE 00              6351 	adc	a,#0x00
   1212 23                 6352 	inc	hl
   1213 77                 6353 	ld	(hl),a ; 3
                           6354 ; genPlus
                           6355 ; AOP_STK for _set_cursor_sloc0_1_0
                           6356 ; genPlusIncr
   1214 2B                 6357 	dec	hl
   1215 5E                 6358 	ld	e,(hl)
   1216 23                 6359 	inc	hl
   1217 56                 6360 	ld	d,(hl)
   1218 13                 6361 	inc	de
                           6362 ; genPointerGet
   1219 1A                 6363 	ld	a,(de)
   121A 4F                 6364 	ld	c,a
                           6365 ; genCmpLt
                           6366 ; AOP_STK for _set_cursor_x_1_1
   121B AF                 6367 	xor	a,a
   121C F8 0E              6368 	lda	hl,14(sp)
   121E 7E                 6369 	ld	a,(hl)
   121F 99                 6370 	sbc	a,c ; 2
   1220 D2 C3 12           6371 	jp	nc,00109$
                           6372 ;	mypaint.c 272
                           6373 ; genAssign
                           6374 ; AOP_STK for _set_cursor_y_1_1
   1223 2B                 6375 	dec	hl
   1224 36 00              6376 	ld	(hl),#0x00 ; 3
                           6377 ; genPlus
                           6378 ; AOP_STK for _set_cursor_sloc0_1_0
                           6379 ; AOP_STK for _set_cursor_sloc2_1_0
                           6380 ; genPlusIncr
   1226 F8 0A              6381 	lda	hl,10(sp)
   1228 7E                 6382 	ld	a,(hl)
   1229 C6 02              6383 	add	a,#0x02
   122B F8 07              6384 	lda	hl,7(sp)
   122D 77                 6385 	ld	(hl),a ; 3
   122E F8 0B              6386 	lda	hl,11(sp)
   1230 7E                 6387 	ld	a,(hl)
   1231 CE 00              6388 	adc	a,#0x00
   1233 F8 08              6389 	lda	hl,8(sp)
   1235 77                 6390 	ld	(hl),a ; 3
                           6391 ; genLabel
   1236                    6392 00101$:
                           6393 ; genPointerGet
                           6394 ; AOP_STK for _set_cursor_sloc2_1_0
                           6395 ; AOP_STK for _set_cursor_sloc1_1_0
   1236 F8 07              6396 	lda	hl,7(sp)
   1238 5E                 6397 	ld	e,(hl)
   1239 23                 6398 	inc	hl
   123A 56                 6399 	ld	d,(hl)
   123B 1A                 6400 	ld	a,(de)
   123C 23                 6401 	inc	hl
   123D 77                 6402 	ld	(hl),a ; 3
                           6403 ; genCmpLt
                           6404 ; AOP_STK for _set_cursor_y_1_1
                           6405 ; AOP_STK for _set_cursor_sloc1_1_0
                           6406 ; AOP_STK for _set_cursor_sloc3_1_0
   123E AF                 6407 	xor	a,a
   123F F8 0D              6408 	lda	hl,13(sp)
   1241 7E                 6409 	ld	a,(hl)
   1242 F8 09              6410 	lda	hl,9(sp)
   1244 9E                 6411 	sbc	a,(hl) ; 2
   1245 3E 00              6412 	ld	a,#0x00
   1247 17                 6413 	rla
   1248 F8 06              6414 	lda	hl,6(sp)
   124A 77                 6415 	ld	(hl),a ; 3
                           6416 ; genIfx
                           6417 ; AOP_STK for _set_cursor_sloc3_1_0
                           6418 ; Removed redundent or a,a
   124B AF                 6419 	xor	a,a
   124C B6                 6420 	or	a,(hl)
   124D CA BD 12           6421 	jp	z,00107$
                           6422 ;	mypaint.c 275
                           6423 ; genPointerGet
                           6424 ; AOP_STK for _set_cursor_sloc0_1_0
   1250 F8 0A              6425 	lda	hl,10(sp)
   1252 5E                 6426 	ld	e,(hl)
   1253 23                 6427 	inc	hl
   1254 56                 6428 	ld	d,(hl)
   1255 1A                 6429 	ld	a,(de)
                           6430 ; genPlus
                           6431 ; AOP_STK for _set_cursor_i_1_1
                           6432 ; AOP_STK for _set_cursor_sloc4_1_0
   1256 23                 6433 	inc	hl
   1257 86                 6434 	add	a,(hl)
   1258 F8 05              6435 	lda	hl,5(sp)
   125A 77                 6436 	ld	(hl),a ; 3
                           6437 ; genLeftShift
                           6438 ; AOP_STK for _set_cursor_sloc4_1_0
                           6439 ; AOP_STK for _set_cursor_sloc6_1_0
   125B 7E                 6440 	ld	a,(hl)
   125C CB 17              6441 	rl	a
   125E CB 17              6442 	rl	a
   1260 CB 17              6443 	rl	a
   1262 CB 17              6444 	rl	a
   1264 E6 F0              6445 	and	a,#0xF0
   1266 F8 02              6446 	lda	hl,2(sp)
   1268 77                 6447 	ld	(hl),a ; 3
                           6448 ; genPlus
                           6449 ; AOP_STK for _set_cursor_sloc6_1_0
                           6450 ; AOP_STK for _set_cursor_sloc5_1_0
   1269 3E 07              6451 	ld	a,#<_cursors_data
   126B 86                 6452 	add	a,(hl)
   126C 23                 6453 	inc	hl
   126D 77                 6454 	ld	(hl),a ; 3
   126E 3E 26              6455 	ld	a,#>_cursors_data
   1270 CE 00              6456 	adc	a,#0x00
   1272 23                 6457 	inc	hl
   1273 77                 6458 	ld	(hl),a ; 3
                           6459 ; genCast
                           6460 ; AOP_STK for _set_cursor_sloc5_1_0
                           6461 ; AOP_STK for _set_cursor_sloc7_1_0
   1274 2B                 6462 	dec	hl
   1275 7E                 6463 	ld	a,(hl)
   1276 F8 00              6464 	lda	hl,0(sp)
   1278 77                 6465 	ld	(hl),a ; 3
   1279 F8 04              6466 	lda	hl,4(sp)
   127B 7E                 6467 	ld	a,(hl)
   127C F8 01              6468 	lda	hl,1(sp)
   127E 77                 6469 	ld	(hl),a ; 3
                           6470 ;	mypaint.c 273
                           6471 ; genIpush
                           6472 ; AOP_STK for _set_cursor_sloc7_1_0
   127F 2B                 6473 	dec	hl
   1280 2A                 6474 	ld	a,(hl+)
   1281 66                 6475 	ld	h,(hl)
   1282 6F                 6476 	ld	l,a
   1283 E5                 6477 	push	hl
                           6478 ; genIpush
   1284 3E 01              6479 	ld	a,#0x01
   1286 F5                 6480 	push	af
   1287 33                 6481 	inc	sp
                           6482 ; genIpush
                           6483 ; AOP_STK for _set_cursor_i_1_1
   1288 F8 0F              6484 	lda	hl,15(sp)
   128A 7E                 6485 	ld	a,(hl)
   128B F5                 6486 	push	af
   128C 33                 6487 	inc	sp
                           6488 ; genCall
   128D CD 00 00           6489 	call	_set_sprite_data
   1290 E8 04              6490 	lda	sp,4(sp)
                           6491 ;	mypaint.c 276
                           6492 ; genIpush
                           6493 ; AOP_STK for _set_cursor_i_1_1
   1292 F8 0C              6494 	lda	hl,12(sp)
   1294 7E                 6495 	ld	a,(hl)
   1295 F5                 6496 	push	af
   1296 33                 6497 	inc	sp
                           6498 ; genIpush
                           6499 ; AOP_STK for _set_cursor_i_1_1
   1297 7E                 6500 	ld	a,(hl)
   1298 F5                 6501 	push	af
   1299 33                 6502 	inc	sp
                           6503 ; genCall
   129A CD 00 00           6504 	call	_set_sprite_tile
   129D E8 02              6505 	lda	sp,2(sp)
                           6506 ;	mypaint.c 277
                           6507 ; genIpush
   129F 3E 10              6508 	ld	a,#0x10
   12A1 F5                 6509 	push	af
   12A2 33                 6510 	inc	sp
                           6511 ; genIpush
                           6512 ; AOP_STK for _set_cursor_i_1_1
   12A3 F8 0D              6513 	lda	hl,13(sp)
   12A5 7E                 6514 	ld	a,(hl)
   12A6 F5                 6515 	push	af
   12A7 33                 6516 	inc	sp
                           6517 ; genCall
   12A8 CD 00 00           6518 	call	_set_sprite_prop
   12AB E8 02              6519 	lda	sp,2(sp)
                           6520 ;	mypaint.c 278
                           6521 ; genPlus
                           6522 ; AOP_STK for _set_cursor_i_1_1
                           6523 ; genPlusIncr
   12AD F8 0C              6524 	lda	hl,12(sp)
   12AF 7E                 6525 	ld	a,(hl)
   12B0 C6 01              6526 	add	a,#0x01
   12B2 4F                 6527 	ld	c,a
                           6528 ; genAssign
                           6529 ; AOP_STK for _set_cursor_i_1_1
   12B3 71                 6530 	ld	(hl),c ; 3
                           6531 ;	mypaint.c 272
                           6532 ; genPlus
                           6533 ; AOP_STK for _set_cursor_y_1_1
                           6534 ; genPlusIncr
   12B4 23                 6535 	inc	hl
   12B5 7E                 6536 	ld	a,(hl)
   12B6 C6 01              6537 	add	a,#0x01
   12B8 47                 6538 	ld	b,a
                           6539 ; genAssign
                           6540 ; AOP_STK for _set_cursor_y_1_1
   12B9 70                 6541 	ld	(hl),b ; 3
                           6542 ; genGoto
   12BA C3 36 12           6543 	jp	00101$
                           6544 ; genLabel
   12BD                    6545 00107$:
                           6546 ;	mypaint.c 271
                           6547 ; genPlus
                           6548 ; AOP_STK for _set_cursor_x_1_1
                           6549 ; genPlusIncr
   12BD F8 0E              6550 	lda	hl,14(sp)
   12BF 34                 6551 	inc	(hl)
                           6552 ; genGoto
   12C0 C3 F8 11           6553 	jp	00105$
                           6554 ; genLabel
   12C3                    6555 00109$:
                           6556 ;	mypaint.c 281
                           6557 ; genCmpLt
                           6558 ; AOP_STK for _set_cursor_i_1_1
   12C3 F8 0C              6559 	lda	hl,12(sp)
   12C5 7E                 6560 	ld	a,(hl)
   12C6 FE 04              6561 	cp	#0x04
   12C8 D2 E1 12           6562 	jp	nc,00113$
                           6563 ;	mypaint.c 282
                           6564 ; genIpush
   12CB 3E 00              6565 	ld	a,#0x00
   12CD F5                 6566 	push	af
   12CE 33                 6567 	inc	sp
                           6568 ; genIpush
   12CF 3E 00              6569 	ld	a,#0x00
   12D1 F5                 6570 	push	af
   12D2 33                 6571 	inc	sp
                           6572 ; genIpush
                           6573 ; AOP_STK for _set_cursor_i_1_1
   12D3 7E                 6574 	ld	a,(hl)
   12D4 F5                 6575 	push	af
   12D5 33                 6576 	inc	sp
                           6577 ; genCall
   12D6 CD 00 00           6578 	call	_move_sprite
   12D9 E8 03              6579 	lda	sp,3(sp)
                           6580 ;	mypaint.c 281
                           6581 ; genPlus
                           6582 ; AOP_STK for _set_cursor_i_1_1
                           6583 ; genPlusIncr
   12DB F8 0C              6584 	lda	hl,12(sp)
   12DD 34                 6585 	inc	(hl)
                           6586 ; genGoto
   12DE C3 C3 12           6587 	jp	00109$
                           6588 ; genLabel
   12E1                    6589 00113$:
                           6590 ; genEndFunction
   12E1 E8 0F              6591 	lda	sp,15(sp)
   12E3 C1                 6592 	pop bc
   12E4 C9                 6593 	ret
   12E5                    6594 ___set_cursor_end:
                           6595 ;	mypaint.c 286
                           6596 ; genLabel
                           6597 ; genFunction
                           6598 ;	---------------------------------
                           6599 ; Function move_cursor
                           6600 ; ---------------------------------
   12E5                    6601 ___move_cursor_start:
   12E5                    6602 _move_cursor:
   12E5 C5                 6603 	push	bc
   12E6 E8 EA              6604 	lda sp,-22(sp)
                           6605 ;	mypaint.c 290
                           6606 ; genAssign
                           6607 ; AOP_STK for _move_cursor_x_1_1
   12E8 F8 15              6608 	lda	hl,21(sp)
   12EA 36 00              6609 	ld	(hl),#0x00 ; 3
                           6610 ; genLabel
   12EC                    6611 00105$:
                           6612 ; genIpush
   12EC 3E 05              6613 	ld	a,#0x05
   12EE F5                 6614 	push	af
   12EF 33                 6615 	inc	sp
                           6616 ; genIpush
                           6617 ; AOP_HL for _current_cursor
   12F0 21 CF 04           6618 	ld	hl,#_current_cursor + 0
   12F3 7E                 6619 	ld	a,(hl)
   12F4 F5                 6620 	push	af
   12F5 33                 6621 	inc	sp
                           6622 ; genCall
   12F6 CD 00 00           6623 	call	__muluchar
   12F9 43                 6624 	ld	b,e
   12FA E8 02              6625 	lda	sp,2(sp)
                           6626 ; genPlus
                           6627 ; AOP_STK for _move_cursor_sloc0_1_0
   12FC 3E E9              6628 	ld	a,#<_cursors
   12FE 80                 6629 	add	a,b
   12FF F8 12              6630 	lda	hl,18(sp)
   1301 77                 6631 	ld	(hl),a ; 3
   1302 3E 25              6632 	ld	a,#>_cursors
   1304 CE 00              6633 	adc	a,#0x00
   1306 23                 6634 	inc	hl
   1307 77                 6635 	ld	(hl),a ; 3
                           6636 ; genPlus
                           6637 ; AOP_STK for _move_cursor_sloc0_1_0
                           6638 ; genPlusIncr
   1308 2B                 6639 	dec	hl
   1309 5E                 6640 	ld	e,(hl)
   130A 23                 6641 	inc	hl
   130B 56                 6642 	ld	d,(hl)
   130C 13                 6643 	inc	de
                           6644 ; genPointerGet
   130D 1A                 6645 	ld	a,(de)
   130E 4F                 6646 	ld	c,a
                           6647 ; genCmpLt
                           6648 ; AOP_STK for _move_cursor_x_1_1
   130F AF                 6649 	xor	a,a
   1310 23                 6650 	inc	hl
   1311 23                 6651 	inc	hl
   1312 7E                 6652 	ld	a,(hl)
   1313 99                 6653 	sbc	a,c ; 2
   1314 D2 F6 13           6654 	jp	nc,00109$
                           6655 ;	mypaint.c 291
                           6656 ; genAssign
                           6657 ; AOP_STK for _move_cursor_y_1_1
   1317 2B                 6658 	dec	hl
   1318 36 00              6659 	ld	(hl),#0x00 ; 3
                           6660 ; genPlus
                           6661 ; AOP_STK for _move_cursor_sloc0_1_0
                           6662 ; AOP_STK for _move_cursor_sloc1_1_0
                           6663 ; genPlusIncr
   131A 2B                 6664 	dec	hl
   131B 2B                 6665 	dec	hl
   131C 7E                 6666 	ld	a,(hl)
   131D C6 04              6667 	add	a,#0x04
   131F 2B                 6668 	dec	hl
   1320 2B                 6669 	dec	hl
   1321 77                 6670 	ld	(hl),a ; 3
   1322 F8 13              6671 	lda	hl,19(sp)
   1324 7E                 6672 	ld	a,(hl)
   1325 CE 00              6673 	adc	a,#0x00
   1327 2B                 6674 	dec	hl
   1328 2B                 6675 	dec	hl
   1329 77                 6676 	ld	(hl),a ; 3
                           6677 ; genPlus
                           6678 ; AOP_STK for _move_cursor_sloc0_1_0
                           6679 ; AOP_STK for _move_cursor_sloc2_1_0
                           6680 ; genPlusIncr
   132A 23                 6681 	inc	hl
   132B 7E                 6682 	ld	a,(hl)
   132C C6 03              6683 	add	a,#0x03
   132E F8 0E              6684 	lda	hl,14(sp)
   1330 77                 6685 	ld	(hl),a ; 3
   1331 F8 13              6686 	lda	hl,19(sp)
   1333 7E                 6687 	ld	a,(hl)
   1334 CE 00              6688 	adc	a,#0x00
   1336 F8 0F              6689 	lda	hl,15(sp)
   1338 77                 6690 	ld	(hl),a ; 3
                           6691 ; genLeftShift
                           6692 ; AOP_STK for _move_cursor_x_1_1
                           6693 ; AOP_STK for _move_cursor_sloc4_1_0
   1339 F8 15              6694 	lda	hl,21(sp)
   133B 7E                 6695 	ld	a,(hl)
   133C CB 17              6696 	rl	a
   133E CB 17              6697 	rl	a
   1340 CB 17              6698 	rl	a
   1342 E6 F8              6699 	and	a,#0xF8
   1344 F8 0C              6700 	lda	hl,12(sp)
   1346 77                 6701 	ld	(hl),a ; 3
                           6702 ; genLeftShift
                           6703 ; AOP_STK for _move_cursor_x_1_1
                           6704 ; AOP_STK for _move_cursor_sloc3_1_0
   1347 F8 15              6705 	lda	hl,21(sp)
   1349 7E                 6706 	ld	a,(hl)
   134A 87                 6707 	add	a,a
   134B F8 0D              6708 	lda	hl,13(sp)
   134D 77                 6709 	ld	(hl),a ; 3
                           6710 ; genPlus
                           6711 ; AOP_STK for _move_cursor_sloc0_1_0
                           6712 ; AOP_STK for _move_cursor_sloc5_1_0
                           6713 ; genPlusIncr
   134E F8 12              6714 	lda	hl,18(sp)
   1350 7E                 6715 	ld	a,(hl)
   1351 C6 02              6716 	add	a,#0x02
   1353 F8 0A              6717 	lda	hl,10(sp)
   1355 77                 6718 	ld	(hl),a ; 3
   1356 F8 13              6719 	lda	hl,19(sp)
   1358 7E                 6720 	ld	a,(hl)
   1359 CE 00              6721 	adc	a,#0x00
   135B F8 0B              6722 	lda	hl,11(sp)
   135D 77                 6723 	ld	(hl),a ; 3
                           6724 ; genLabel
   135E                    6725 00101$:
                           6726 ; genPointerGet
                           6727 ; AOP_STK for _move_cursor_sloc5_1_0
                           6728 ; AOP_STK for _move_cursor_sloc0_1_0
   135E F8 0A              6729 	lda	hl,10(sp)
   1360 5E                 6730 	ld	e,(hl)
   1361 23                 6731 	inc	hl
   1362 56                 6732 	ld	d,(hl)
   1363 1A                 6733 	ld	a,(de)
   1364 F8 12              6734 	lda	hl,18(sp)
   1366 77                 6735 	ld	(hl),a ; 3
                           6736 ; genCmpLt
                           6737 ; AOP_STK for _move_cursor_y_1_1
                           6738 ; AOP_STK for _move_cursor_sloc0_1_0
                           6739 ; AOP_STK for _move_cursor_sloc7_1_0
   1367 AF                 6740 	xor	a,a
   1368 23                 6741 	inc	hl
   1369 23                 6742 	inc	hl
   136A 7E                 6743 	ld	a,(hl)
   136B 2B                 6744 	dec	hl
   136C 2B                 6745 	dec	hl
   136D 9E                 6746 	sbc	a,(hl) ; 2
   136E 3E 00              6747 	ld	a,#0x00
   1370 17                 6748 	rla
   1371 F8 08              6749 	lda	hl,8(sp)
   1373 77                 6750 	ld	(hl),a ; 3
                           6751 ; genIfx
                           6752 ; AOP_STK for _move_cursor_sloc7_1_0
                           6753 ; Removed redundent or a,a
   1374 AF                 6754 	xor	a,a
   1375 B6                 6755 	or	a,(hl)
   1376 CA F0 13           6756 	jp	z,00107$
                           6757 ;	mypaint.c 294
                           6758 ; genPlus
                           6759 ; AOP_HL for _cursor_y
                           6760 ; AOP_STK for _move_cursor_sloc6_1_0
                           6761 ; genPlusIncr
   1379 21 D2 04           6762 	ld	hl,#_cursor_y + 0
   137C 7E                 6763 	ld	a,(hl)
   137D C6 10              6764 	add	a,#0x10
   137F F8 09              6765 	lda	hl,9(sp)
   1381 77                 6766 	ld	(hl),a ; 3
                           6767 ; genPointerGet
                           6768 ; AOP_STK for _move_cursor_sloc1_1_0
                           6769 ; AOP_STK for _move_cursor_sloc9_1_0
   1382 F8 10              6770 	lda	hl,16(sp)
   1384 5E                 6771 	ld	e,(hl)
   1385 23                 6772 	inc	hl
   1386 56                 6773 	ld	d,(hl)
   1387 1A                 6774 	ld	a,(de)
   1388 F8 06              6775 	lda	hl,6(sp)
   138A 77                 6776 	ld	(hl),a ; 3
                           6777 ; genMinus
                           6778 ; AOP_STK for _move_cursor_sloc6_1_0
                           6779 ; AOP_STK for _move_cursor_sloc9_1_0
                           6780 ; AOP_STK for _move_cursor_sloc8_1_0
   138B F8 09              6781 	lda	hl,9(sp)
   138D 7E                 6782 	ld	a,(hl)
   138E F8 06              6783 	lda	hl,6(sp)
   1390 96                 6784 	sub	a,(hl)
   1391 23                 6785 	inc	hl
   1392 77                 6786 	ld	(hl),a ; 3
                           6787 ; genLeftShift
                           6788 ; AOP_STK for _move_cursor_y_1_1
                           6789 ; AOP_STK for _move_cursor_sloc12_1_0
   1393 F8 14              6790 	lda	hl,20(sp)
   1395 7E                 6791 	ld	a,(hl)
   1396 CB 17              6792 	rl	a
   1398 CB 17              6793 	rl	a
   139A CB 17              6794 	rl	a
   139C E6 F8              6795 	and	a,#0xF8
   139E F8 03              6796 	lda	hl,3(sp)
   13A0 77                 6797 	ld	(hl),a ; 3
                           6798 ; genPlus
                           6799 ; AOP_STK for _move_cursor_sloc8_1_0
                           6800 ; AOP_STK for _move_cursor_sloc12_1_0
                           6801 ; AOP_STK for _move_cursor_sloc10_1_0
   13A1 F8 07              6802 	lda	hl,7(sp)
   13A3 7E                 6803 	ld	a,(hl)
   13A4 F8 03              6804 	lda	hl,3(sp)
   13A6 86                 6805 	add	a,(hl)
   13A7 23                 6806 	inc	hl
   13A8 23                 6807 	inc	hl
   13A9 77                 6808 	ld	(hl),a ; 3
                           6809 ;	mypaint.c 293
                           6810 ; genPlus
                           6811 ; AOP_HL for _cursor_x
                           6812 ; AOP_STK for _move_cursor_sloc11_1_0
                           6813 ; genPlusIncr
   13AA 21 D1 04           6814 	ld	hl,#_cursor_x + 0
   13AD 7E                 6815 	ld	a,(hl)
   13AE C6 08              6816 	add	a,#0x08
   13B0 F8 04              6817 	lda	hl,4(sp)
   13B2 77                 6818 	ld	(hl),a ; 3
                           6819 ; genPointerGet
                           6820 ; AOP_STK for _move_cursor_sloc2_1_0
                           6821 ; AOP_STK for _move_cursor_sloc13_1_0
   13B3 F8 0E              6822 	lda	hl,14(sp)
   13B5 5E                 6823 	ld	e,(hl)
   13B6 23                 6824 	inc	hl
   13B7 56                 6825 	ld	d,(hl)
   13B8 1A                 6826 	ld	a,(de)
   13B9 F8 02              6827 	lda	hl,2(sp)
   13BB 77                 6828 	ld	(hl),a ; 3
                           6829 ; genMinus
                           6830 ; AOP_STK for _move_cursor_sloc11_1_0
                           6831 ; AOP_STK for _move_cursor_sloc13_1_0
   13BC 23                 6832 	inc	hl
   13BD 23                 6833 	inc	hl
   13BE 7E                 6834 	ld	a,(hl)
   13BF 2B                 6835 	dec	hl
   13C0 2B                 6836 	dec	hl
   13C1 96                 6837 	sub	a,(hl)
   13C2 4F                 6838 	ld	c,a
                           6839 ; genPlus
                           6840 ; AOP_STK for _move_cursor_sloc4_1_0
                           6841 ; AOP_STK for _move_cursor_sloc14_1_0
   13C3 79                 6842 	ld	a,c
   13C4 F8 0C              6843 	lda	hl,12(sp)
   13C6 86                 6844 	add	a,(hl)
   13C7 F8 01              6845 	lda	hl,1(sp)
   13C9 77                 6846 	ld	(hl),a ; 3
                           6847 ;	mypaint.c 292
                           6848 ; genPlus
                           6849 ; AOP_STK for _move_cursor_sloc3_1_0
                           6850 ; AOP_STK for _move_cursor_y_1_1
                           6851 ; AOP_STK for _move_cursor_sloc15_1_0
   13CA F8 0D              6852 	lda	hl,13(sp)
   13CC 7E                 6853 	ld	a,(hl)
   13CD F8 14              6854 	lda	hl,20(sp)
   13CF 86                 6855 	add	a,(hl)
   13D0 F8 00              6856 	lda	hl,0(sp)
   13D2 77                 6857 	ld	(hl),a ; 3
                           6858 ; genIpush
                           6859 ; AOP_STK for _move_cursor_sloc10_1_0
   13D3 F8 05              6860 	lda	hl,5(sp)
   13D5 7E                 6861 	ld	a,(hl)
   13D6 F5                 6862 	push	af
   13D7 33                 6863 	inc	sp
                           6864 ; genIpush
                           6865 ; AOP_STK for _move_cursor_sloc14_1_0
   13D8 F8 02              6866 	lda	hl,2(sp)
   13DA 7E                 6867 	ld	a,(hl)
   13DB F5                 6868 	push	af
   13DC 33                 6869 	inc	sp
                           6870 ; genIpush
                           6871 ; AOP_STK for _move_cursor_sloc15_1_0
   13DD 2B                 6872 	dec	hl
   13DE 7E                 6873 	ld	a,(hl)
   13DF F5                 6874 	push	af
   13E0 33                 6875 	inc	sp
                           6876 ; genCall
   13E1 CD 00 00           6877 	call	_move_sprite
   13E4 E8 03              6878 	lda	sp,3(sp)
                           6879 ;	mypaint.c 291
                           6880 ; genPlus
                           6881 ; AOP_STK for _move_cursor_y_1_1
                           6882 ; genPlusIncr
   13E6 F8 14              6883 	lda	hl,20(sp)
   13E8 7E                 6884 	ld	a,(hl)
   13E9 C6 01              6885 	add	a,#0x01
   13EB 47                 6886 	ld	b,a
                           6887 ; genAssign
                           6888 ; AOP_STK for _move_cursor_y_1_1
   13EC 70                 6889 	ld	(hl),b ; 3
                           6890 ; genGoto
   13ED C3 5E 13           6891 	jp	00101$
                           6892 ; genLabel
   13F0                    6893 00107$:
                           6894 ;	mypaint.c 290
                           6895 ; genPlus
                           6896 ; AOP_STK for _move_cursor_x_1_1
                           6897 ; genPlusIncr
   13F0 F8 15              6898 	lda	hl,21(sp)
   13F2 34                 6899 	inc	(hl)
                           6900 ; genGoto
   13F3 C3 EC 12           6901 	jp	00105$
                           6902 ; genLabel
   13F6                    6903 00109$:
                           6904 ; genEndFunction
   13F6 E8 16              6905 	lda	sp,22(sp)
   13F8 C1                 6906 	pop bc
   13F9 C9                 6907 	ret
   13FA                    6908 ___move_cursor_end:
                           6909 ;	mypaint.c 297
                           6910 ; genLabel
                           6911 ; genFunction
                           6912 ;	---------------------------------
                           6913 ; Function move_menu_cursor
                           6914 ; ---------------------------------
   13FA                    6915 ___move_menu_cursor_start:
   13FA                    6916 _move_menu_cursor:
   13FA C5                 6917 	push	bc
   13FB E8 FE              6918 	lda sp,-2(sp)
                           6919 ;	mypaint.c 301
                           6920 ; genIpush
   13FD 3E 0A              6921 	ld	a,#0x0A
   13FF F5                 6922 	push	af
   1400 33                 6923 	inc	sp
                           6924 ; genIpush
                           6925 ; AOP_HL for _menu_cursor_pos
   1401 21 D0 04           6926 	ld	hl,#_menu_cursor_pos + 0
   1404 7E                 6927 	ld	a,(hl)
   1405 F5                 6928 	push	af
   1406 33                 6929 	inc	sp
                           6930 ; genCall
   1407 CD 00 00           6931 	call	__muluchar
   140A 4B                 6932 	ld	c,e
   140B E8 02              6933 	lda	sp,2(sp)
                           6934 ; genPlus
                           6935 ; AOP_STK for _move_menu_cursor_sloc0_1_0
   140D 3E 35              6936 	ld	a,#<_icons
   140F 81                 6937 	add	a,c
   1410 F8 00              6938 	lda	hl,0(sp)
   1412 77                 6939 	ld	(hl),a ; 3
   1413 3E 1F              6940 	ld	a,#>_icons
   1415 CE 00              6941 	adc	a,#0x00
   1417 23                 6942 	inc	hl
   1418 77                 6943 	ld	(hl),a ; 3
                           6944 ; genPlus
                           6945 ; AOP_STK for _move_menu_cursor_sloc0_1_0
                           6946 ; genPlusIncr
   1419 2B                 6947 	dec	hl
   141A 5E                 6948 	ld	e,(hl)
   141B 23                 6949 	inc	hl
   141C 56                 6950 	ld	d,(hl)
   141D 13                 6951 	inc	de
   141E 13                 6952 	inc	de
                           6953 ; genPointerGet
   141F 1A                 6954 	ld	a,(de)
   1420 4F                 6955 	ld	c,a
                           6956 ; genPlus
                           6957 ; AOP_STK for _move_menu_cursor_sloc0_1_0
                           6958 ; genPlusIncr
   1421 2B                 6959 	dec	hl
   1422 7E                 6960 	ld	a,(hl)
   1423 C6 04              6961 	add	a,#0x04
   1425 5F                 6962 	ld	e,a
   1426 23                 6963 	inc	hl
   1427 7E                 6964 	ld	a,(hl)
   1428 CE 00              6965 	adc	a,#0x00
   142A 57                 6966 	ld	d,a
                           6967 ; genPointerGet
   142B 1A                 6968 	ld	a,(de)
                           6969 ; genPlus
   142C 81                 6970 	add	a,c
   142D 4F                 6971 	ld	c,a
                           6972 ; genLeftShift
   142E 79                 6973 	ld	a,c
   142F CB 17              6974 	rl	a
   1431 CB 17              6975 	rl	a
   1433 CB 17              6976 	rl	a
   1435 E6 F8              6977 	and	a,#0xF8
   1437 4F                 6978 	ld	c,a
                           6979 ; genPlus
                           6980 ; genPlusIncr
   1438 79                 6981 	ld	a,c
   1439 C6 0C              6982 	add	a,#0x0C
   143B 4F                 6983 	ld	c,a
                           6984 ;	mypaint.c 300
                           6985 ; genPlus
                           6986 ; AOP_STK for _move_menu_cursor_sloc0_1_0
                           6987 ; genPlusIncr
   143C 2B                 6988 	dec	hl
   143D 5E                 6989 	ld	e,(hl)
   143E 23                 6990 	inc	hl
   143F 56                 6991 	ld	d,(hl)
   1440 13                 6992 	inc	de
                           6993 ; genPointerGet
   1441 1A                 6994 	ld	a,(de)
   1442 47                 6995 	ld	b,a
                           6996 ; genPlus
                           6997 ; AOP_STK for _move_menu_cursor_sloc0_1_0
                           6998 ; genPlusIncr
   1443 2B                 6999 	dec	hl
   1444 7E                 7000 	ld	a,(hl)
   1445 C6 03              7001 	add	a,#0x03
   1447 5F                 7002 	ld	e,a
   1448 23                 7003 	inc	hl
   1449 7E                 7004 	ld	a,(hl)
   144A CE 00              7005 	adc	a,#0x00
   144C 57                 7006 	ld	d,a
                           7007 ; genPointerGet
   144D 1A                 7008 	ld	a,(de)
                           7009 ; genPlus
   144E 80                 7010 	add	a,b
   144F 47                 7011 	ld	b,a
                           7012 ; genLeftShift
   1450 78                 7013 	ld	a,b
   1451 CB 17              7014 	rl	a
   1453 CB 17              7015 	rl	a
   1455 CB 17              7016 	rl	a
   1457 E6 F8              7017 	and	a,#0xF8
   1459 47                 7018 	ld	b,a
                           7019 ; genPlus
                           7020 ; genPlusIncr
   145A 04                 7021 	inc	b
   145B 04                 7022 	inc	b
   145C 04                 7023 	inc	b
   145D 04                 7024 	inc	b
                           7025 ;	mypaint.c 299
                           7026 ; genIpush
   145E 79                 7027 	ld	a,c
   145F F5                 7028 	push	af
   1460 33                 7029 	inc	sp
                           7030 ; genIpush
   1461 78                 7031 	ld	a,b
   1462 F5                 7032 	push	af
   1463 33                 7033 	inc	sp
                           7034 ; genIpush
   1464 3E 00              7035 	ld	a,#0x00
   1466 F5                 7036 	push	af
   1467 33                 7037 	inc	sp
                           7038 ; genCall
   1468 CD 00 00           7039 	call	_move_sprite
   146B E8 03              7040 	lda	sp,3(sp)
                           7041 ; genLabel
   146D                    7042 00101$:
                           7043 ; genEndFunction
   146D E8 02              7044 	lda	sp,2(sp)
   146F C1                 7045 	pop bc
   1470 C9                 7046 	ret
   1471                    7047 ___move_menu_cursor_end:
                           7048 ;	mypaint.c 304
                           7049 ; genLabel
                           7050 ; genFunction
                           7051 ;	---------------------------------
                           7052 ; Function set_icon
                           7053 ; ---------------------------------
   1471                    7054 ___set_icon_start:
   1471                    7055 _set_icon:
   1471 C5                 7056 	push	bc
   1472 E8 D6              7057 	lda sp,-42(sp)
                           7058 ;	mypaint.c 308
                           7059 ; genAssign
                           7060 ; AOP_STK for _set_icon_x_1_1
   1474 F8 29              7061 	lda	hl,41(sp)
   1476 36 00              7062 	ld	(hl),#0x00 ; 3
                           7063 ; genIpush
   1478 3E 0A              7064 	ld	a,#0x0A
   147A F5                 7065 	push	af
   147B 33                 7066 	inc	sp
                           7067 ; genIpush
                           7068 ; AOP_STK for 
   147C F8 2F              7069 	lda	hl,47(sp)
   147E 7E                 7070 	ld	a,(hl)
   147F F5                 7071 	push	af
   1480 33                 7072 	inc	sp
                           7073 ; genCall
   1481 CD 00 00           7074 	call	__muluchar
   1484 43                 7075 	ld	b,e
   1485 E8 02              7076 	lda	sp,2(sp)
                           7077 ; genPlus
                           7078 ; AOP_STK for _set_icon_sloc1_1_0
   1487 3E 35              7079 	ld	a,#<_icons
   1489 80                 7080 	add	a,b
   148A F8 22              7081 	lda	hl,34(sp)
   148C 77                 7082 	ld	(hl),a ; 3
   148D 3E 1F              7083 	ld	a,#>_icons
   148F CE 00              7084 	adc	a,#0x00
   1491 23                 7085 	inc	hl
   1492 77                 7086 	ld	(hl),a ; 3
                           7087 ; genPlus
                           7088 ; AOP_STK for _set_icon_sloc1_1_0
                           7089 ; AOP_STK for _set_icon_sloc0_1_0
                           7090 ; genPlusIncr
   1493 2B                 7091 	dec	hl
   1494 7E                 7092 	ld	a,(hl)
   1495 C6 03              7093 	add	a,#0x03
   1497 23                 7094 	inc	hl
   1498 23                 7095 	inc	hl
   1499 77                 7096 	ld	(hl),a ; 3
   149A 2B                 7097 	dec	hl
   149B 7E                 7098 	ld	a,(hl)
   149C CE 00              7099 	adc	a,#0x00
   149E 23                 7100 	inc	hl
   149F 23                 7101 	inc	hl
   14A0 77                 7102 	ld	(hl),a ; 3
                           7103 ; genLabel
   14A1                    7104 00105$:
                           7105 ; genPointerGet
                           7106 ; AOP_STK for _set_icon_sloc0_1_0
   14A1 F8 24              7107 	lda	hl,36(sp)
   14A3 5E                 7108 	ld	e,(hl)
   14A4 23                 7109 	inc	hl
   14A5 56                 7110 	ld	d,(hl)
   14A6 1A                 7111 	ld	a,(de)
   14A7 4F                 7112 	ld	c,a
                           7113 ; genCmpLt
                           7114 ; AOP_STK for _set_icon_x_1_1
   14A8 AF                 7115 	xor	a,a
   14A9 F8 29              7116 	lda	hl,41(sp)
   14AB 7E                 7117 	ld	a,(hl)
   14AC 99                 7118 	sbc	a,c ; 2
   14AD D2 08 16           7119 	jp	nc,00109$
                           7120 ;	mypaint.c 309
                           7121 ; genAssign
                           7122 ; AOP_STK for _set_icon_y_1_1
   14B0 2B                 7123 	dec	hl
   14B1 36 00              7124 	ld	(hl),#0x00 ; 3
                           7125 ; genPlus
                           7126 ; AOP_STK for _set_icon_sloc1_1_0
                           7127 ; AOP_STK for _set_icon_sloc2_1_0
                           7128 ; genPlusIncr
   14B3 F8 22              7129 	lda	hl,34(sp)
   14B5 7E                 7130 	ld	a,(hl)
   14B6 C6 02              7131 	add	a,#0x02
   14B8 2B                 7132 	dec	hl
   14B9 2B                 7133 	dec	hl
   14BA 77                 7134 	ld	(hl),a ; 3
   14BB F8 23              7135 	lda	hl,35(sp)
   14BD 7E                 7136 	ld	a,(hl)
   14BE CE 00              7137 	adc	a,#0x00
   14C0 2B                 7138 	dec	hl
   14C1 2B                 7139 	dec	hl
   14C2 77                 7140 	ld	(hl),a ; 3
                           7141 ; genPlus
                           7142 ; AOP_STK for _set_icon_sloc1_1_0
                           7143 ; AOP_STK for _set_icon_sloc3_1_0
                           7144 ; genPlusIncr
   14C3 23                 7145 	inc	hl
   14C4 7E                 7146 	ld	a,(hl)
   14C5 C6 01              7147 	add	a,#0x01
   14C7 F8 1E              7148 	lda	hl,30(sp)
   14C9 77                 7149 	ld	(hl),a ; 3
   14CA F8 23              7150 	lda	hl,35(sp)
   14CC 7E                 7151 	ld	a,(hl)
   14CD CE 00              7152 	adc	a,#0x00
   14CF F8 1F              7153 	lda	hl,31(sp)
   14D1 77                 7154 	ld	(hl),a ; 3
                           7155 ; genPlus
                           7156 ; AOP_STK for _set_icon_sloc1_1_0
                           7157 ; AOP_STK for _set_icon_sloc5_1_0
                           7158 ; genPlusIncr
   14D2 F8 22              7159 	lda	hl,34(sp)
   14D4 7E                 7160 	ld	a,(hl)
   14D5 C6 04              7161 	add	a,#0x04
   14D7 F8 1B              7162 	lda	hl,27(sp)
   14D9 77                 7163 	ld	(hl),a ; 3
   14DA F8 23              7164 	lda	hl,35(sp)
   14DC 7E                 7165 	ld	a,(hl)
   14DD CE 00              7166 	adc	a,#0x00
   14DF F8 1C              7167 	lda	hl,28(sp)
   14E1 77                 7168 	ld	(hl),a ; 3
                           7169 ; genLabel
   14E2                    7170 00101$:
                           7171 ; genPointerGet
                           7172 ; AOP_STK for _set_icon_sloc5_1_0
                           7173 ; AOP_STK for _set_icon_sloc4_1_0
   14E2 F8 1B              7174 	lda	hl,27(sp)
   14E4 5E                 7175 	ld	e,(hl)
   14E5 23                 7176 	inc	hl
   14E6 56                 7177 	ld	d,(hl)
   14E7 1A                 7178 	ld	a,(de)
   14E8 23                 7179 	inc	hl
   14E9 77                 7180 	ld	(hl),a ; 3
                           7181 ; genCmpLt
                           7182 ; AOP_STK for _set_icon_y_1_1
                           7183 ; AOP_STK for _set_icon_sloc4_1_0
                           7184 ; AOP_STK for _set_icon_sloc7_1_0
   14EA AF                 7185 	xor	a,a
   14EB F8 28              7186 	lda	hl,40(sp)
   14ED 7E                 7187 	ld	a,(hl)
   14EE F8 1D              7188 	lda	hl,29(sp)
   14F0 9E                 7189 	sbc	a,(hl) ; 2
   14F1 3E 00              7190 	ld	a,#0x00
   14F3 17                 7191 	rla
   14F4 F8 19              7192 	lda	hl,25(sp)
   14F6 77                 7193 	ld	(hl),a ; 3
                           7194 ; genIfx
                           7195 ; AOP_STK for _set_icon_sloc7_1_0
                           7196 ; Removed redundent or a,a
   14F7 AF                 7197 	xor	a,a
   14F8 B6                 7198 	or	a,(hl)
   14F9 CA 02 16           7199 	jp	z,00107$
                           7200 ;	mypaint.c 310
                           7201 ; genPointerGet
                           7202 ; AOP_STK for _set_icon_sloc1_1_0
                           7203 ; AOP_STK for _set_icon_sloc6_1_0
   14FC F8 22              7204 	lda	hl,34(sp)
   14FE 5E                 7205 	ld	e,(hl)
   14FF 23                 7206 	inc	hl
   1500 56                 7207 	ld	d,(hl)
   1501 1A                 7208 	ld	a,(de)
   1502 F8 1A              7209 	lda	hl,26(sp)
   1504 77                 7210 	ld	(hl),a ; 3
                           7211 ; genCast
                           7212 ; AOP_STK for _set_icon_x_1_1
                           7213 ; AOP_STK for _set_icon_sloc9_1_0
   1505 F8 29              7214 	lda	hl,41(sp)
   1507 7E                 7215 	ld	a,(hl)
   1508 F8 15              7216 	lda	hl,21(sp)
   150A 77                 7217 	ld	(hl),a ; 3
   150B 23                 7218 	inc	hl
   150C 36 00              7219 	ld	(hl),#0x00 ; 3
                           7220 ; genLeftShift
                           7221 ; AOP_STK for _set_icon_sloc9_1_0
                           7222 ; AOP_STK for _set_icon_sloc8_1_0
   150E 2B                 7223 	dec	hl
   150F 2A                 7224 	ld	a,(hl+)
   1510 23                 7225 	inc	hl
   1511 77                 7226 	ld	(hl),a ; 3
   1512 2B                 7227 	dec	hl
   1513 2A                 7228 	ld	a,(hl+)
   1514 23                 7229 	inc	hl
   1515 77                 7230 	ld	(hl),a ; 3
   1516 B7                 7231 	or	a,a
   1517 2B                 7232 	dec	hl
   1518 CB 16              7233 	rl	(hl)
   151A 23                 7234 	inc	hl
   151B CB 16              7235 	rl	(hl)
                           7236 ; genCast
                           7237 ; AOP_STK for _set_icon_sloc6_1_0
                           7238 ; AOP_STK for _set_icon_sloc11_1_0
   151D 23                 7239 	inc	hl
   151E 23                 7240 	inc	hl
   151F 7E                 7241 	ld	a,(hl)
   1520 F8 11              7242 	lda	hl,17(sp)
   1522 77                 7243 	ld	(hl),a ; 3
   1523 23                 7244 	inc	hl
   1524 36 00              7245 	ld	(hl),#0x00 ; 3
                           7246 ; genPlus
                           7247 ; AOP_STK for _set_icon_sloc11_1_0
                           7248 ; AOP_STK for _set_icon_sloc8_1_0
                           7249 ; AOP_STK for _set_icon_sloc10_1_0
   1526 2B                 7250 	dec	hl
   1527 7E                 7251 	ld	a,(hl)
   1528 F8 17              7252 	lda	hl,23(sp)
   152A 86                 7253 	add	a,(hl)
   152B F8 13              7254 	lda	hl,19(sp)
   152D 77                 7255 	ld	(hl),a ; 3
   152E 2B                 7256 	dec	hl
   152F 7E                 7257 	ld	a,(hl)
   1530 F8 18              7258 	lda	hl,24(sp)
   1532 8E                 7259 	adc	a,(hl)
   1533 F8 14              7260 	lda	hl,20(sp)
   1535 77                 7261 	ld	(hl),a ; 3
                           7262 ; genCast
                           7263 ; AOP_STK for _set_icon_y_1_1
                           7264 ; AOP_STK for _set_icon_sloc12_1_0
   1536 F8 28              7265 	lda	hl,40(sp)
   1538 7E                 7266 	ld	a,(hl)
   1539 F8 0F              7267 	lda	hl,15(sp)
   153B 77                 7268 	ld	(hl),a ; 3
   153C 23                 7269 	inc	hl
   153D 36 00              7270 	ld	(hl),#0x00 ; 3
                           7271 ; genPlus
                           7272 ; AOP_STK for _set_icon_sloc10_1_0
                           7273 ; AOP_STK for _set_icon_sloc12_1_0
                           7274 ; AOP_STK for _set_icon_index_2_2
   153F F8 13              7275 	lda	hl,19(sp)
   1541 7E                 7276 	ld	a,(hl)
   1542 F8 0F              7277 	lda	hl,15(sp)
   1544 86                 7278 	add	a,(hl)
   1545 F8 26              7279 	lda	hl,38(sp)
   1547 77                 7280 	ld	(hl),a ; 3
   1548 F8 14              7281 	lda	hl,20(sp)
   154A 7E                 7282 	ld	a,(hl)
   154B F8 10              7283 	lda	hl,16(sp)
   154D 8E                 7284 	adc	a,(hl)
   154E F8 27              7285 	lda	hl,39(sp)
   1550 77                 7286 	ld	(hl),a ; 3
                           7287 ; genAssign
                           7288 ; AOP_STK for _set_icon_index_2_2
                           7289 ; (registers are the same)
                           7290 ;	mypaint.c 314
                           7291 ; genLeftShift
                           7292 ; AOP_STK for _set_icon_index_2_2
                           7293 ; AOP_STK for _set_icon_sloc13_1_0
   1551 2B                 7294 	dec	hl
   1552 7E                 7295 	ld	a,(hl)
   1553 F8 0D              7296 	lda	hl,13(sp)
   1555 77                 7297 	ld	(hl),a ; 3
   1556 F8 27              7298 	lda	hl,39(sp)
   1558 7E                 7299 	ld	a,(hl)
   1559 F8 0E              7300 	lda	hl,14(sp)
   155B 77                 7301 	ld	(hl),a ; 3
   155C 3E 05              7302 	ld	a,#0x04+1
   155E 18 08              7303 	jr	00119$
   1560                    7304 00118$:
   1560 B7                 7305 	or	a,a
   1561 F8 0D              7306 	lda	hl,13(sp)
   1563 CB 16              7307 	rl	(hl)
   1565 23                 7308 	inc	hl
   1566 CB 16              7309 	rl	(hl)
   1568                    7310 00119$:
   1568 3D                 7311 	dec	a
   1569 20 F5              7312 	jr	nz,00118$
                           7313 ; genPlus
                           7314 ; AOP_STK for _set_icon_sloc13_1_0
                           7315 ; AOP_STK for _set_icon_sloc15_1_0
   156B 3E CC              7316 	ld	a,#<_data_buffer
   156D F8 0D              7317 	lda	hl,13(sp)
   156F 86                 7318 	add	a,(hl)
   1570 F8 09              7319 	lda	hl,9(sp)
   1572 77                 7320 	ld	(hl),a ; 3
   1573 3E 01              7321 	ld	a,#>_data_buffer
   1575 F8 0E              7322 	lda	hl,14(sp)
   1577 8E                 7323 	adc	a,(hl)
   1578 F8 0A              7324 	lda	hl,10(sp)
   157A 77                 7325 	ld	(hl),a ; 3
                           7326 ; genCast
                           7327 ; AOP_STK for _set_icon_sloc15_1_0
                           7328 ; AOP_STK for _set_icon_sloc14_1_0
   157B 2B                 7329 	dec	hl
   157C 2A                 7330 	ld	a,(hl+)
   157D 23                 7331 	inc	hl
   157E 77                 7332 	ld	(hl),a ; 3
   157F 2B                 7333 	dec	hl
   1580 2A                 7334 	ld	a,(hl+)
   1581 23                 7335 	inc	hl
   1582 77                 7336 	ld	(hl),a ; 3
                           7337 ;	mypaint.c 313
                           7338 ; genIfx
                           7339 ; AOP_STK for 
   1583 AF                 7340 	xor	a,a
   1584 F8 2F              7341 	lda	hl,47(sp)
   1586 B6                 7342 	or	a,(hl)
   1587 B7                 7343 	or	a,a
   1588 CA A5 15           7344 	jp	z,00111$
                           7345 ; genPlus
                           7346 ; AOP_STK for _set_icon_sloc13_1_0
                           7347 ; AOP_STK for _set_icon_sloc17_1_0
   158B 3E E9              7348 	ld	a,#<_selected_data
   158D F8 0D              7349 	lda	hl,13(sp)
   158F 86                 7350 	add	a,(hl)
   1590 F8 05              7351 	lda	hl,5(sp)
   1592 77                 7352 	ld	(hl),a ; 3
   1593 3E 22              7353 	ld	a,#>_selected_data
   1595 F8 0E              7354 	lda	hl,14(sp)
   1597 8E                 7355 	adc	a,(hl)
   1598 F8 06              7356 	lda	hl,6(sp)
   159A 77                 7357 	ld	(hl),a ; 3
                           7358 ; genAssign
                           7359 ; AOP_STK for _set_icon_sloc17_1_0
                           7360 ; AOP_STK for _set_icon_sloc16_1_0
   159B 2B                 7361 	dec	hl
   159C 2A                 7362 	ld	a,(hl+)
   159D 5E                 7363 	ld	e,(hl)
   159E 23                 7364 	inc	hl
   159F 77                 7365 	ld	(hl),a ; 3
   15A0 23                 7366 	inc	hl
   15A1 73                 7367 	ld	(hl),e ; 3
                           7368 ; genGoto
   15A2 C3 BD 15           7369 	jp	00112$
                           7370 ; genLabel
   15A5                    7371 00111$:
                           7372 ; genPlus
                           7373 ; AOP_STK for _set_icon_sloc13_1_0
                           7374 ; AOP_STK for _set_icon_sloc18_1_0
   15A5 3E E9              7375 	ld	a,#<_data
   15A7 F8 0D              7376 	lda	hl,13(sp)
   15A9 86                 7377 	add	a,(hl)
   15AA F8 03              7378 	lda	hl,3(sp)
   15AC 77                 7379 	ld	(hl),a ; 3
   15AD 3E 1F              7380 	ld	a,#>_data
   15AF F8 0E              7381 	lda	hl,14(sp)
   15B1 8E                 7382 	adc	a,(hl)
   15B2 F8 04              7383 	lda	hl,4(sp)
   15B4 77                 7384 	ld	(hl),a ; 3
                           7385 ; genAssign
                           7386 ; AOP_STK for _set_icon_sloc18_1_0
                           7387 ; AOP_STK for _set_icon_sloc16_1_0
   15B5 2B                 7388 	dec	hl
   15B6 2A                 7389 	ld	a,(hl+)
   15B7 5E                 7390 	ld	e,(hl)
   15B8 F8 07              7391 	lda	hl,7(sp)
   15BA 77                 7392 	ld	(hl),a ; 3
   15BB 23                 7393 	inc	hl
   15BC 73                 7394 	ld	(hl),e ; 3
                           7395 ; genLabel
   15BD                    7396 00112$:
                           7397 ; genCast
                           7398 ; AOP_STK for _set_icon_sloc16_1_0
                           7399 ; AOP_STK for _set_icon_sloc19_1_0
   15BD F8 07              7400 	lda	hl,7(sp)
   15BF 7E                 7401 	ld	a,(hl)
   15C0 F8 01              7402 	lda	hl,1(sp)
   15C2 77                 7403 	ld	(hl),a ; 3
   15C3 F8 08              7404 	lda	hl,8(sp)
   15C5 7E                 7405 	ld	a,(hl)
   15C6 F8 02              7406 	lda	hl,2(sp)
   15C8 77                 7407 	ld	(hl),a ; 3
                           7408 ;	mypaint.c 312
                           7409 ; genPointerGet
                           7410 ; AOP_STK for _set_icon_sloc2_1_0
   15C9 F8 20              7411 	lda	hl,32(sp)
   15CB 5E                 7412 	ld	e,(hl)
   15CC 23                 7413 	inc	hl
   15CD 56                 7414 	ld	d,(hl)
   15CE 1A                 7415 	ld	a,(de)
                           7416 ; genPlus
                           7417 ; AOP_STK for _set_icon_y_1_1
   15CF F8 28              7418 	lda	hl,40(sp)
   15D1 86                 7419 	add	a,(hl)
   15D2 4F                 7420 	ld	c,a
                           7421 ;	mypaint.c 311
                           7422 ; genPointerGet
                           7423 ; AOP_STK for _set_icon_sloc3_1_0
   15D3 F8 1E              7424 	lda	hl,30(sp)
   15D5 5E                 7425 	ld	e,(hl)
   15D6 23                 7426 	inc	hl
   15D7 56                 7427 	ld	d,(hl)
   15D8 1A                 7428 	ld	a,(de)
                           7429 ; genPlus
                           7430 ; AOP_STK for _set_icon_x_1_1
                           7431 ; AOP_STK for _set_icon_sloc20_1_0
   15D9 F8 29              7432 	lda	hl,41(sp)
   15DB 86                 7433 	add	a,(hl)
   15DC F8 00              7434 	lda	hl,0(sp)
   15DE 77                 7435 	ld	(hl),a ; 3
                           7436 ; genIpush
                           7437 ; AOP_STK for _set_icon_sloc14_1_0
   15DF F8 0B              7438 	lda	hl,11(sp)
   15E1 2A                 7439 	ld	a,(hl+)
   15E2 66                 7440 	ld	h,(hl)
   15E3 6F                 7441 	ld	l,a
   15E4 E5                 7442 	push	hl
                           7443 ; genIpush
                           7444 ; AOP_STK for _set_icon_sloc19_1_0
   15E5 F8 03              7445 	lda	hl,3(sp)
   15E7 2A                 7446 	ld	a,(hl+)
   15E8 66                 7447 	ld	h,(hl)
   15E9 6F                 7448 	ld	l,a
   15EA E5                 7449 	push	hl
                           7450 ; genIpush
   15EB 79                 7451 	ld	a,c
   15EC F5                 7452 	push	af
   15ED 33                 7453 	inc	sp
                           7454 ; genIpush
                           7455 ; AOP_STK for _set_icon_sloc20_1_0
   15EE F8 05              7456 	lda	hl,5(sp)
   15F0 7E                 7457 	ld	a,(hl)
   15F1 F5                 7458 	push	af
   15F2 33                 7459 	inc	sp
                           7460 ; genCall
   15F3 CD 00 00           7461 	call	_switch_data
   15F6 E8 06              7462 	lda	sp,6(sp)
                           7463 ;	mypaint.c 309
                           7464 ; genPlus
                           7465 ; AOP_STK for _set_icon_y_1_1
                           7466 ; genPlusIncr
   15F8 F8 28              7467 	lda	hl,40(sp)
   15FA 7E                 7468 	ld	a,(hl)
   15FB C6 01              7469 	add	a,#0x01
   15FD 47                 7470 	ld	b,a
                           7471 ; genAssign
                           7472 ; AOP_STK for _set_icon_y_1_1
   15FE 70                 7473 	ld	(hl),b ; 3
                           7474 ; genGoto
   15FF C3 E2 14           7475 	jp	00101$
                           7476 ; genLabel
   1602                    7477 00107$:
                           7478 ;	mypaint.c 308
                           7479 ; genPlus
                           7480 ; AOP_STK for _set_icon_x_1_1
                           7481 ; genPlusIncr
   1602 F8 29              7482 	lda	hl,41(sp)
   1604 34                 7483 	inc	(hl)
                           7484 ; genGoto
   1605 C3 A1 14           7485 	jp	00105$
                           7486 ; genLabel
   1608                    7487 00109$:
                           7488 ; genEndFunction
   1608 E8 2A              7489 	lda	sp,42(sp)
   160A C1                 7490 	pop bc
   160B C9                 7491 	ret
   160C                    7492 ___set_icon_end:
                           7493 ;	mypaint.c 318
                           7494 ; genLabel
                           7495 ; genFunction
                           7496 ;	---------------------------------
                           7497 ; Function change_icon
                           7498 ; ---------------------------------
   160C                    7499 ___change_icon_start:
   160C                    7500 _change_icon:
   160C C5                 7501 	push	bc
   160D E8 CB              7502 	lda sp,-53(sp)
                           7503 ;	mypaint.c 322
                           7504 ; genAssign
                           7505 ; AOP_STK for _change_icon_x_1_1
   160F F8 34              7506 	lda	hl,52(sp)
   1611 36 00              7507 	ld	(hl),#0x00 ; 3
                           7508 ; genIpush
   1613 3E 0A              7509 	ld	a,#0x0A
   1615 F5                 7510 	push	af
   1616 33                 7511 	inc	sp
                           7512 ; genIpush
                           7513 ; AOP_STK for 
   1617 F8 3A              7514 	lda	hl,58(sp)
   1619 7E                 7515 	ld	a,(hl)
   161A F5                 7516 	push	af
   161B 33                 7517 	inc	sp
                           7518 ; genCall
   161C CD 00 00           7519 	call	__muluchar
   161F 43                 7520 	ld	b,e
   1620 E8 02              7521 	lda	sp,2(sp)
                           7522 ; genPlus
                           7523 ; AOP_STK for _change_icon_sloc1_1_0
   1622 3E 35              7524 	ld	a,#<_icons
   1624 80                 7525 	add	a,b
   1625 F8 2F              7526 	lda	hl,47(sp)
   1627 77                 7527 	ld	(hl),a ; 3
   1628 3E 1F              7528 	ld	a,#>_icons
   162A CE 00              7529 	adc	a,#0x00
   162C 23                 7530 	inc	hl
   162D 77                 7531 	ld	(hl),a ; 3
                           7532 ; genPlus
                           7533 ; AOP_STK for _change_icon_sloc1_1_0
                           7534 ; AOP_STK for _change_icon_sloc0_1_0
                           7535 ; genPlusIncr
   162E 2B                 7536 	dec	hl
   162F 7E                 7537 	ld	a,(hl)
   1630 C6 03              7538 	add	a,#0x03
   1632 23                 7539 	inc	hl
   1633 23                 7540 	inc	hl
   1634 77                 7541 	ld	(hl),a ; 3
   1635 2B                 7542 	dec	hl
   1636 7E                 7543 	ld	a,(hl)
   1637 CE 00              7544 	adc	a,#0x00
   1639 23                 7545 	inc	hl
   163A 23                 7546 	inc	hl
   163B 77                 7547 	ld	(hl),a ; 3
                           7548 ; genLabel
   163C                    7549 00105$:
                           7550 ; genPointerGet
                           7551 ; AOP_STK for _change_icon_sloc0_1_0
   163C F8 31              7552 	lda	hl,49(sp)
   163E 5E                 7553 	ld	e,(hl)
   163F 23                 7554 	inc	hl
   1640 56                 7555 	ld	d,(hl)
   1641 1A                 7556 	ld	a,(de)
   1642 4F                 7557 	ld	c,a
                           7558 ; genCmpLt
                           7559 ; AOP_STK for _change_icon_x_1_1
   1643 AF                 7560 	xor	a,a
   1644 23                 7561 	inc	hl
   1645 23                 7562 	inc	hl
   1646 7E                 7563 	ld	a,(hl)
   1647 99                 7564 	sbc	a,c ; 2
   1648 D2 F6 17           7565 	jp	nc,00109$
                           7566 ;	mypaint.c 323
                           7567 ; genAssign
                           7568 ; AOP_STK for _change_icon_y_1_1
   164B 2B                 7569 	dec	hl
   164C 36 00              7570 	ld	(hl),#0x00 ; 3
                           7571 ; genPlus
                           7572 ; AOP_STK for _change_icon_sloc1_1_0
                           7573 ; AOP_STK for _change_icon_sloc2_1_0
                           7574 ; genPlusIncr
   164E F8 2F              7575 	lda	hl,47(sp)
   1650 7E                 7576 	ld	a,(hl)
   1651 C6 02              7577 	add	a,#0x02
   1653 2B                 7578 	dec	hl
   1654 2B                 7579 	dec	hl
   1655 77                 7580 	ld	(hl),a ; 3
   1656 F8 30              7581 	lda	hl,48(sp)
   1658 7E                 7582 	ld	a,(hl)
   1659 CE 00              7583 	adc	a,#0x00
   165B 2B                 7584 	dec	hl
   165C 2B                 7585 	dec	hl
   165D 77                 7586 	ld	(hl),a ; 3
                           7587 ; genPlus
                           7588 ; AOP_STK for _change_icon_sloc1_1_0
                           7589 ; AOP_STK for _change_icon_sloc3_1_0
                           7590 ; genPlusIncr
   165E 23                 7591 	inc	hl
   165F 7E                 7592 	ld	a,(hl)
   1660 C6 01              7593 	add	a,#0x01
   1662 F8 2B              7594 	lda	hl,43(sp)
   1664 77                 7595 	ld	(hl),a ; 3
   1665 F8 30              7596 	lda	hl,48(sp)
   1667 7E                 7597 	ld	a,(hl)
   1668 CE 00              7598 	adc	a,#0x00
   166A F8 2C              7599 	lda	hl,44(sp)
   166C 77                 7600 	ld	(hl),a ; 3
                           7601 ; genPlus
                           7602 ; AOP_STK for _change_icon_sloc1_1_0
                           7603 ; AOP_STK for _change_icon_sloc5_1_0
                           7604 ; genPlusIncr
   166D F8 2F              7605 	lda	hl,47(sp)
   166F 7E                 7606 	ld	a,(hl)
   1670 C6 04              7607 	add	a,#0x04
   1672 F8 28              7608 	lda	hl,40(sp)
   1674 77                 7609 	ld	(hl),a ; 3
   1675 F8 30              7610 	lda	hl,48(sp)
   1677 7E                 7611 	ld	a,(hl)
   1678 CE 00              7612 	adc	a,#0x00
   167A F8 29              7613 	lda	hl,41(sp)
   167C 77                 7614 	ld	(hl),a ; 3
                           7615 ; genLabel
   167D                    7616 00101$:
                           7617 ; genPointerGet
                           7618 ; AOP_STK for _change_icon_sloc5_1_0
                           7619 ; AOP_STK for _change_icon_sloc4_1_0
   167D F8 28              7620 	lda	hl,40(sp)
   167F 5E                 7621 	ld	e,(hl)
   1680 23                 7622 	inc	hl
   1681 56                 7623 	ld	d,(hl)
   1682 1A                 7624 	ld	a,(de)
   1683 23                 7625 	inc	hl
   1684 77                 7626 	ld	(hl),a ; 3
                           7627 ; genCmpLt
                           7628 ; AOP_STK for _change_icon_y_1_1
                           7629 ; AOP_STK for _change_icon_sloc4_1_0
                           7630 ; AOP_STK for _change_icon_sloc7_1_0
   1685 AF                 7631 	xor	a,a
   1686 F8 33              7632 	lda	hl,51(sp)
   1688 7E                 7633 	ld	a,(hl)
   1689 F8 2A              7634 	lda	hl,42(sp)
   168B 9E                 7635 	sbc	a,(hl) ; 2
   168C 3E 00              7636 	ld	a,#0x00
   168E 17                 7637 	rla
   168F F8 26              7638 	lda	hl,38(sp)
   1691 77                 7639 	ld	(hl),a ; 3
                           7640 ; genIfx
                           7641 ; AOP_STK for _change_icon_sloc7_1_0
                           7642 ; Removed redundent or a,a
   1692 AF                 7643 	xor	a,a
   1693 B6                 7644 	or	a,(hl)
   1694 CA F0 17           7645 	jp	z,00107$
                           7646 ;	mypaint.c 326
                           7647 ; genIfx
                           7648 ; AOP_STK for 
   1697 AF                 7649 	xor	a,a
   1698 F8 3A              7650 	lda	hl,58(sp)
   169A B6                 7651 	or	a,(hl)
   169B B7                 7652 	or	a,a
   169C CA 28 17           7653 	jp	z,00111$
                           7654 ;	mypaint.c 327
                           7655 ; genPointerGet
                           7656 ; AOP_STK for _change_icon_sloc1_1_0
                           7657 ; AOP_STK for _change_icon_sloc6_1_0
   169F F8 2F              7658 	lda	hl,47(sp)
   16A1 5E                 7659 	ld	e,(hl)
   16A2 23                 7660 	inc	hl
   16A3 56                 7661 	ld	d,(hl)
   16A4 1A                 7662 	ld	a,(de)
   16A5 F8 27              7663 	lda	hl,39(sp)
   16A7 77                 7664 	ld	(hl),a ; 3
                           7665 ; genCast
                           7666 ; AOP_STK for _change_icon_x_1_1
                           7667 ; AOP_STK for _change_icon_sloc9_1_0
   16A8 F8 34              7668 	lda	hl,52(sp)
   16AA 7E                 7669 	ld	a,(hl)
   16AB F8 22              7670 	lda	hl,34(sp)
   16AD 77                 7671 	ld	(hl),a ; 3
   16AE 23                 7672 	inc	hl
   16AF 36 00              7673 	ld	(hl),#0x00 ; 3
                           7674 ; genLeftShift
                           7675 ; AOP_STK for _change_icon_sloc9_1_0
                           7676 ; AOP_STK for _change_icon_sloc8_1_0
   16B1 2B                 7677 	dec	hl
   16B2 2A                 7678 	ld	a,(hl+)
   16B3 23                 7679 	inc	hl
   16B4 77                 7680 	ld	(hl),a ; 3
   16B5 2B                 7681 	dec	hl
   16B6 2A                 7682 	ld	a,(hl+)
   16B7 23                 7683 	inc	hl
   16B8 77                 7684 	ld	(hl),a ; 3
   16B9 B7                 7685 	or	a,a
   16BA 2B                 7686 	dec	hl
   16BB CB 16              7687 	rl	(hl)
   16BD 23                 7688 	inc	hl
   16BE CB 16              7689 	rl	(hl)
                           7690 ; genCast
                           7691 ; AOP_STK for _change_icon_sloc6_1_0
                           7692 ; AOP_STK for _change_icon_sloc11_1_0
   16C0 23                 7693 	inc	hl
   16C1 23                 7694 	inc	hl
   16C2 7E                 7695 	ld	a,(hl)
   16C3 F8 1E              7696 	lda	hl,30(sp)
   16C5 77                 7697 	ld	(hl),a ; 3
   16C6 23                 7698 	inc	hl
   16C7 36 00              7699 	ld	(hl),#0x00 ; 3
                           7700 ; genPlus
                           7701 ; AOP_STK for _change_icon_sloc11_1_0
                           7702 ; AOP_STK for _change_icon_sloc8_1_0
                           7703 ; AOP_STK for _change_icon_sloc10_1_0
   16C9 2B                 7704 	dec	hl
   16CA 7E                 7705 	ld	a,(hl)
   16CB F8 24              7706 	lda	hl,36(sp)
   16CD 86                 7707 	add	a,(hl)
   16CE F8 20              7708 	lda	hl,32(sp)
   16D0 77                 7709 	ld	(hl),a ; 3
   16D1 2B                 7710 	dec	hl
   16D2 7E                 7711 	ld	a,(hl)
   16D3 F8 25              7712 	lda	hl,37(sp)
   16D5 8E                 7713 	adc	a,(hl)
   16D6 F8 21              7714 	lda	hl,33(sp)
   16D8 77                 7715 	ld	(hl),a ; 3
                           7716 ; genCast
                           7717 ; AOP_STK for _change_icon_y_1_1
                           7718 ; AOP_STK for _change_icon_sloc13_1_0
   16D9 F8 33              7719 	lda	hl,51(sp)
   16DB 7E                 7720 	ld	a,(hl)
   16DC F8 1A              7721 	lda	hl,26(sp)
   16DE 77                 7722 	ld	(hl),a ; 3
   16DF 23                 7723 	inc	hl
   16E0 36 00              7724 	ld	(hl),#0x00 ; 3
                           7725 ; genPlus
                           7726 ; AOP_STK for _change_icon_sloc10_1_0
                           7727 ; AOP_STK for _change_icon_sloc13_1_0
                           7728 ; AOP_STK for _change_icon_sloc12_1_0
   16E2 F8 20              7729 	lda	hl,32(sp)
   16E4 7E                 7730 	ld	a,(hl)
   16E5 F8 1A              7731 	lda	hl,26(sp)
   16E7 86                 7732 	add	a,(hl)
   16E8 23                 7733 	inc	hl
   16E9 23                 7734 	inc	hl
   16EA 77                 7735 	ld	(hl),a ; 3
   16EB F8 21              7736 	lda	hl,33(sp)
   16ED 7E                 7737 	ld	a,(hl)
   16EE F8 1B              7738 	lda	hl,27(sp)
   16F0 8E                 7739 	adc	a,(hl)
   16F1 23                 7740 	inc	hl
   16F2 23                 7741 	inc	hl
   16F3 77                 7742 	ld	(hl),a ; 3
                           7743 ; genLeftShift
                           7744 ; AOP_STK for _change_icon_sloc12_1_0
                           7745 ; AOP_STK for _change_icon_sloc15_1_0
   16F4 2B                 7746 	dec	hl
   16F5 7E                 7747 	ld	a,(hl)
   16F6 F8 16              7748 	lda	hl,22(sp)
   16F8 77                 7749 	ld	(hl),a ; 3
   16F9 F8 1D              7750 	lda	hl,29(sp)
   16FB 7E                 7751 	ld	a,(hl)
   16FC F8 17              7752 	lda	hl,23(sp)
   16FE 77                 7753 	ld	(hl),a ; 3
   16FF 3E 05              7754 	ld	a,#0x04+1
   1701 18 08              7755 	jr	00119$
   1703                    7756 00118$:
   1703 B7                 7757 	or	a,a
   1704 F8 16              7758 	lda	hl,22(sp)
   1706 CB 16              7759 	rl	(hl)
   1708 23                 7760 	inc	hl
   1709 CB 16              7761 	rl	(hl)
   170B                    7762 00119$:
   170B 3D                 7763 	dec	a
   170C 20 F5              7764 	jr	nz,00118$
                           7765 ; genPlus
                           7766 ; AOP_STK for _change_icon_sloc15_1_0
                           7767 ; AOP_STK for _change_icon_sloc14_1_0
   170E 3E E9              7768 	ld	a,#<_selected_data
   1710 F8 16              7769 	lda	hl,22(sp)
   1712 86                 7770 	add	a,(hl)
   1713 23                 7771 	inc	hl
   1714 23                 7772 	inc	hl
   1715 77                 7773 	ld	(hl),a ; 3
   1716 3E 22              7774 	ld	a,#>_selected_data
   1718 2B                 7775 	dec	hl
   1719 8E                 7776 	adc	a,(hl)
   171A 23                 7777 	inc	hl
   171B 23                 7778 	inc	hl
   171C 77                 7779 	ld	(hl),a ; 3
                           7780 ; genAssign
                           7781 ; AOP_STK for _change_icon_sloc14_1_0
                           7782 ; AOP_STK for _change_icon_sloc16_1_0
   171D 2B                 7783 	dec	hl
   171E 2A                 7784 	ld	a,(hl+)
   171F 5E                 7785 	ld	e,(hl)
   1720 F8 14              7786 	lda	hl,20(sp)
   1722 77                 7787 	ld	(hl),a ; 3
   1723 23                 7788 	inc	hl
   1724 73                 7789 	ld	(hl),e ; 3
                           7790 ; genGoto
   1725 C3 AD 17           7791 	jp	00112$
                           7792 ; genLabel
   1728                    7793 00111$:
                           7794 ;	mypaint.c 328
                           7795 ; genPointerGet
                           7796 ; AOP_STK for _change_icon_sloc1_1_0
                           7797 ; AOP_STK for _change_icon_sloc17_1_0
   1728 F8 2F              7798 	lda	hl,47(sp)
   172A 5E                 7799 	ld	e,(hl)
   172B 23                 7800 	inc	hl
   172C 56                 7801 	ld	d,(hl)
   172D 1A                 7802 	ld	a,(de)
   172E F8 13              7803 	lda	hl,19(sp)
   1730 77                 7804 	ld	(hl),a ; 3
                           7805 ; genCast
                           7806 ; AOP_STK for _change_icon_x_1_1
                           7807 ; AOP_STK for _change_icon_sloc19_1_0
   1731 F8 34              7808 	lda	hl,52(sp)
   1733 7E                 7809 	ld	a,(hl)
   1734 F8 0F              7810 	lda	hl,15(sp)
   1736 77                 7811 	ld	(hl),a ; 3
   1737 23                 7812 	inc	hl
   1738 36 00              7813 	ld	(hl),#0x00 ; 3
                           7814 ; genLeftShift
                           7815 ; AOP_STK for _change_icon_sloc19_1_0
                           7816 ; AOP_STK for _change_icon_sloc18_1_0
   173A 2B                 7817 	dec	hl
   173B 2A                 7818 	ld	a,(hl+)
   173C 23                 7819 	inc	hl
   173D 77                 7820 	ld	(hl),a ; 3
   173E 2B                 7821 	dec	hl
   173F 2A                 7822 	ld	a,(hl+)
   1740 23                 7823 	inc	hl
   1741 77                 7824 	ld	(hl),a ; 3
   1742 B7                 7825 	or	a,a
   1743 2B                 7826 	dec	hl
   1744 CB 16              7827 	rl	(hl)
   1746 23                 7828 	inc	hl
   1747 CB 16              7829 	rl	(hl)
                           7830 ; genCast
                           7831 ; AOP_STK for _change_icon_sloc17_1_0
                           7832 ; AOP_STK for _change_icon_sloc21_1_0
   1749 23                 7833 	inc	hl
   174A 7E                 7834 	ld	a,(hl)
   174B F8 0B              7835 	lda	hl,11(sp)
   174D 77                 7836 	ld	(hl),a ; 3
   174E 23                 7837 	inc	hl
   174F 36 00              7838 	ld	(hl),#0x00 ; 3
                           7839 ; genPlus
                           7840 ; AOP_STK for _change_icon_sloc21_1_0
                           7841 ; AOP_STK for _change_icon_sloc18_1_0
                           7842 ; AOP_STK for _change_icon_sloc20_1_0
   1751 2B                 7843 	dec	hl
   1752 7E                 7844 	ld	a,(hl)
   1753 F8 11              7845 	lda	hl,17(sp)
   1755 86                 7846 	add	a,(hl)
   1756 F8 0D              7847 	lda	hl,13(sp)
   1758 77                 7848 	ld	(hl),a ; 3
   1759 2B                 7849 	dec	hl
   175A 7E                 7850 	ld	a,(hl)
   175B F8 12              7851 	lda	hl,18(sp)
   175D 8E                 7852 	adc	a,(hl)
   175E F8 0E              7853 	lda	hl,14(sp)
   1760 77                 7854 	ld	(hl),a ; 3
                           7855 ; genCast
                           7856 ; AOP_STK for _change_icon_y_1_1
                           7857 ; AOP_STK for _change_icon_sloc23_1_0
   1761 F8 33              7858 	lda	hl,51(sp)
   1763 7E                 7859 	ld	a,(hl)
   1764 F8 07              7860 	lda	hl,7(sp)
   1766 77                 7861 	ld	(hl),a ; 3
   1767 23                 7862 	inc	hl
   1768 36 00              7863 	ld	(hl),#0x00 ; 3
                           7864 ; genPlus
                           7865 ; AOP_STK for _change_icon_sloc20_1_0
                           7866 ; AOP_STK for _change_icon_sloc23_1_0
                           7867 ; AOP_STK for _change_icon_sloc22_1_0
   176A F8 0D              7868 	lda	hl,13(sp)
   176C 7E                 7869 	ld	a,(hl)
   176D F8 07              7870 	lda	hl,7(sp)
   176F 86                 7871 	add	a,(hl)
   1770 23                 7872 	inc	hl
   1771 23                 7873 	inc	hl
   1772 77                 7874 	ld	(hl),a ; 3
   1773 F8 0E              7875 	lda	hl,14(sp)
   1775 7E                 7876 	ld	a,(hl)
   1776 F8 08              7877 	lda	hl,8(sp)
   1778 8E                 7878 	adc	a,(hl)
   1779 23                 7879 	inc	hl
   177A 23                 7880 	inc	hl
   177B 77                 7881 	ld	(hl),a ; 3
                           7882 ; genLeftShift
                           7883 ; AOP_STK for _change_icon_sloc22_1_0
                           7884 ; AOP_STK for _change_icon_sloc25_1_0
   177C 2B                 7885 	dec	hl
   177D 7E                 7886 	ld	a,(hl)
   177E F8 03              7887 	lda	hl,3(sp)
   1780 77                 7888 	ld	(hl),a ; 3
   1781 F8 0A              7889 	lda	hl,10(sp)
   1783 7E                 7890 	ld	a,(hl)
   1784 F8 04              7891 	lda	hl,4(sp)
   1786 77                 7892 	ld	(hl),a ; 3
   1787 3E 05              7893 	ld	a,#0x04+1
   1789 18 08              7894 	jr	00121$
   178B                    7895 00120$:
   178B B7                 7896 	or	a,a
   178C F8 03              7897 	lda	hl,3(sp)
   178E CB 16              7898 	rl	(hl)
   1790 23                 7899 	inc	hl
   1791 CB 16              7900 	rl	(hl)
   1793                    7901 00121$:
   1793 3D                 7902 	dec	a
   1794 20 F5              7903 	jr	nz,00120$
                           7904 ; genPlus
                           7905 ; AOP_STK for _change_icon_sloc25_1_0
                           7906 ; AOP_STK for _change_icon_sloc24_1_0
   1796 3E E9              7907 	ld	a,#<_data
   1798 F8 03              7908 	lda	hl,3(sp)
   179A 86                 7909 	add	a,(hl)
   179B 23                 7910 	inc	hl
   179C 23                 7911 	inc	hl
   179D 77                 7912 	ld	(hl),a ; 3
   179E 3E 1F              7913 	ld	a,#>_data
   17A0 2B                 7914 	dec	hl
   17A1 8E                 7915 	adc	a,(hl)
   17A2 23                 7916 	inc	hl
   17A3 23                 7917 	inc	hl
   17A4 77                 7918 	ld	(hl),a ; 3
                           7919 ; genAssign
                           7920 ; AOP_STK for _change_icon_sloc24_1_0
                           7921 ; AOP_STK for _change_icon_sloc16_1_0
   17A5 2B                 7922 	dec	hl
   17A6 2A                 7923 	ld	a,(hl+)
   17A7 5E                 7924 	ld	e,(hl)
   17A8 F8 14              7925 	lda	hl,20(sp)
   17AA 77                 7926 	ld	(hl),a ; 3
   17AB 23                 7927 	inc	hl
   17AC 73                 7928 	ld	(hl),e ; 3
                           7929 ; genLabel
   17AD                    7930 00112$:
                           7931 ; genCast
                           7932 ; AOP_STK for _change_icon_sloc16_1_0
                           7933 ; AOP_STK for _change_icon_sloc26_1_0
   17AD F8 14              7934 	lda	hl,20(sp)
   17AF 7E                 7935 	ld	a,(hl)
   17B0 F8 01              7936 	lda	hl,1(sp)
   17B2 77                 7937 	ld	(hl),a ; 3
   17B3 F8 15              7938 	lda	hl,21(sp)
   17B5 7E                 7939 	ld	a,(hl)
   17B6 F8 02              7940 	lda	hl,2(sp)
   17B8 77                 7941 	ld	(hl),a ; 3
                           7942 ;	mypaint.c 325
                           7943 ; genPointerGet
                           7944 ; AOP_STK for _change_icon_sloc2_1_0
   17B9 F8 2D              7945 	lda	hl,45(sp)
   17BB 5E                 7946 	ld	e,(hl)
   17BC 23                 7947 	inc	hl
   17BD 56                 7948 	ld	d,(hl)
   17BE 1A                 7949 	ld	a,(de)
                           7950 ; genPlus
                           7951 ; AOP_STK for _change_icon_y_1_1
   17BF F8 33              7952 	lda	hl,51(sp)
   17C1 86                 7953 	add	a,(hl)
   17C2 4F                 7954 	ld	c,a
                           7955 ;	mypaint.c 324
                           7956 ; genPointerGet
                           7957 ; AOP_STK for _change_icon_sloc3_1_0
   17C3 F8 2B              7958 	lda	hl,43(sp)
   17C5 5E                 7959 	ld	e,(hl)
   17C6 23                 7960 	inc	hl
   17C7 56                 7961 	ld	d,(hl)
   17C8 1A                 7962 	ld	a,(de)
                           7963 ; genPlus
                           7964 ; AOP_STK for _change_icon_x_1_1
                           7965 ; AOP_STK for _change_icon_sloc27_1_0
   17C9 F8 34              7966 	lda	hl,52(sp)
   17CB 86                 7967 	add	a,(hl)
   17CC F8 00              7968 	lda	hl,0(sp)
   17CE 77                 7969 	ld	(hl),a ; 3
                           7970 ; genIpush
   17CF 21 00 00           7971 	ld	hl,#0x0000
   17D2 E5                 7972 	push	hl
                           7973 ; genIpush
                           7974 ; AOP_STK for _change_icon_sloc26_1_0
   17D3 F8 03              7975 	lda	hl,3(sp)
   17D5 2A                 7976 	ld	a,(hl+)
   17D6 66                 7977 	ld	h,(hl)
   17D7 6F                 7978 	ld	l,a
   17D8 E5                 7979 	push	hl
                           7980 ; genIpush
   17D9 79                 7981 	ld	a,c
   17DA F5                 7982 	push	af
   17DB 33                 7983 	inc	sp
                           7984 ; genIpush
                           7985 ; AOP_STK for _change_icon_sloc27_1_0
   17DC F8 05              7986 	lda	hl,5(sp)
   17DE 7E                 7987 	ld	a,(hl)
   17DF F5                 7988 	push	af
   17E0 33                 7989 	inc	sp
                           7990 ; genCall
   17E1 CD 00 00           7991 	call	_switch_data
   17E4 E8 06              7992 	lda	sp,6(sp)
                           7993 ;	mypaint.c 323
                           7994 ; genPlus
                           7995 ; AOP_STK for _change_icon_y_1_1
                           7996 ; genPlusIncr
   17E6 F8 33              7997 	lda	hl,51(sp)
   17E8 7E                 7998 	ld	a,(hl)
   17E9 C6 01              7999 	add	a,#0x01
   17EB 47                 8000 	ld	b,a
                           8001 ; genAssign
                           8002 ; AOP_STK for _change_icon_y_1_1
   17EC 70                 8003 	ld	(hl),b ; 3
                           8004 ; genGoto
   17ED C3 7D 16           8005 	jp	00101$
                           8006 ; genLabel
   17F0                    8007 00107$:
                           8008 ;	mypaint.c 322
                           8009 ; genPlus
                           8010 ; AOP_STK for _change_icon_x_1_1
                           8011 ; genPlusIncr
   17F0 F8 34              8012 	lda	hl,52(sp)
   17F2 34                 8013 	inc	(hl)
                           8014 ; genGoto
   17F3 C3 3C 16           8015 	jp	00105$
                           8016 ; genLabel
   17F6                    8017 00109$:
                           8018 ; genEndFunction
   17F6 E8 35              8019 	lda	sp,53(sp)
   17F8 C1                 8020 	pop bc
   17F9 C9                 8021 	ret
   17FA                    8022 ___change_icon_end:
                           8023 ;	mypaint.c 332
                           8024 ; genLabel
                           8025 ; genFunction
                           8026 ;	---------------------------------
                           8027 ; Function reset_icon
                           8028 ; ---------------------------------
   17FA                    8029 ___reset_icon_start:
   17FA                    8030 _reset_icon:
   17FA C5                 8031 	push	bc
   17FB E8 EA              8032 	lda sp,-22(sp)
                           8033 ;	mypaint.c 336
                           8034 ; genAssign
                           8035 ; AOP_STK for _reset_icon_x_1_1
   17FD F8 15              8036 	lda	hl,21(sp)
   17FF 36 00              8037 	ld	(hl),#0x00 ; 3
                           8038 ; genIpush
   1801 3E 0A              8039 	ld	a,#0x0A
   1803 F5                 8040 	push	af
   1804 33                 8041 	inc	sp
                           8042 ; genIpush
                           8043 ; AOP_STK for 
   1805 F8 1B              8044 	lda	hl,27(sp)
   1807 7E                 8045 	ld	a,(hl)
   1808 F5                 8046 	push	af
   1809 33                 8047 	inc	sp
                           8048 ; genCall
   180A CD 00 00           8049 	call	__muluchar
   180D 43                 8050 	ld	b,e
   180E E8 02              8051 	lda	sp,2(sp)
                           8052 ; genPlus
                           8053 ; AOP_STK for _reset_icon_sloc1_1_0
   1810 3E 35              8054 	ld	a,#<_icons
   1812 80                 8055 	add	a,b
   1813 F8 10              8056 	lda	hl,16(sp)
   1815 77                 8057 	ld	(hl),a ; 3
   1816 3E 1F              8058 	ld	a,#>_icons
   1818 CE 00              8059 	adc	a,#0x00
   181A 23                 8060 	inc	hl
   181B 77                 8061 	ld	(hl),a ; 3
                           8062 ; genPlus
                           8063 ; AOP_STK for _reset_icon_sloc1_1_0
                           8064 ; AOP_STK for _reset_icon_sloc0_1_0
                           8065 ; genPlusIncr
   181C 2B                 8066 	dec	hl
   181D 7E                 8067 	ld	a,(hl)
   181E C6 03              8068 	add	a,#0x03
   1820 23                 8069 	inc	hl
   1821 23                 8070 	inc	hl
   1822 77                 8071 	ld	(hl),a ; 3
   1823 2B                 8072 	dec	hl
   1824 7E                 8073 	ld	a,(hl)
   1825 CE 00              8074 	adc	a,#0x00
   1827 23                 8075 	inc	hl
   1828 23                 8076 	inc	hl
   1829 77                 8077 	ld	(hl),a ; 3
                           8078 ; genLabel
   182A                    8079 00105$:
                           8080 ; genPointerGet
                           8081 ; AOP_STK for _reset_icon_sloc0_1_0
   182A F8 12              8082 	lda	hl,18(sp)
   182C 5E                 8083 	ld	e,(hl)
   182D 23                 8084 	inc	hl
   182E 56                 8085 	ld	d,(hl)
   182F 1A                 8086 	ld	a,(de)
   1830 4F                 8087 	ld	c,a
                           8088 ; genCmpLt
                           8089 ; AOP_STK for _reset_icon_x_1_1
   1831 AF                 8090 	xor	a,a
   1832 23                 8091 	inc	hl
   1833 23                 8092 	inc	hl
   1834 7E                 8093 	ld	a,(hl)
   1835 99                 8094 	sbc	a,c ; 2
   1836 D2 FB 18           8095 	jp	nc,00109$
                           8096 ;	mypaint.c 337
                           8097 ; genAssign
                           8098 ; AOP_STK for _reset_icon_y_1_1
   1839 2B                 8099 	dec	hl
   183A 36 00              8100 	ld	(hl),#0x00 ; 3
                           8101 ; genLeftShift
                           8102 ; AOP_STK for _reset_icon_x_1_1
                           8103 ; AOP_STK for _reset_icon_sloc2_1_0
   183C 23                 8104 	inc	hl
   183D 7E                 8105 	ld	a,(hl)
   183E 87                 8106 	add	a,a
   183F F8 0F              8107 	lda	hl,15(sp)
   1841 77                 8108 	ld	(hl),a ; 3
                           8109 ; genPlus
                           8110 ; AOP_STK for _reset_icon_sloc1_1_0
                           8111 ; AOP_STK for _reset_icon_sloc3_1_0
                           8112 ; genPlusIncr
   1842 23                 8113 	inc	hl
   1843 7E                 8114 	ld	a,(hl)
   1844 C6 02              8115 	add	a,#0x02
   1846 F8 0D              8116 	lda	hl,13(sp)
   1848 77                 8117 	ld	(hl),a ; 3
   1849 F8 11              8118 	lda	hl,17(sp)
   184B 7E                 8119 	ld	a,(hl)
   184C CE 00              8120 	adc	a,#0x00
   184E F8 0E              8121 	lda	hl,14(sp)
   1850 77                 8122 	ld	(hl),a ; 3
                           8123 ; genPlus
                           8124 ; AOP_STK for _reset_icon_sloc1_1_0
                           8125 ; AOP_STK for _reset_icon_sloc4_1_0
                           8126 ; genPlusIncr
   1851 23                 8127 	inc	hl
   1852 23                 8128 	inc	hl
   1853 7E                 8129 	ld	a,(hl)
   1854 C6 01              8130 	add	a,#0x01
   1856 F8 0B              8131 	lda	hl,11(sp)
   1858 77                 8132 	ld	(hl),a ; 3
   1859 F8 11              8133 	lda	hl,17(sp)
   185B 7E                 8134 	ld	a,(hl)
   185C CE 00              8135 	adc	a,#0x00
   185E F8 0C              8136 	lda	hl,12(sp)
   1860 77                 8137 	ld	(hl),a ; 3
                           8138 ; genPlus
                           8139 ; AOP_STK for _reset_icon_sloc1_1_0
                           8140 ; AOP_STK for _reset_icon_sloc6_1_0
                           8141 ; genPlusIncr
   1861 F8 10              8142 	lda	hl,16(sp)
   1863 7E                 8143 	ld	a,(hl)
   1864 C6 04              8144 	add	a,#0x04
   1866 F8 08              8145 	lda	hl,8(sp)
   1868 77                 8146 	ld	(hl),a ; 3
   1869 F8 11              8147 	lda	hl,17(sp)
   186B 7E                 8148 	ld	a,(hl)
   186C CE 00              8149 	adc	a,#0x00
   186E F8 09              8150 	lda	hl,9(sp)
   1870 77                 8151 	ld	(hl),a ; 3
                           8152 ; genLabel
   1871                    8153 00101$:
                           8154 ; genPointerGet
                           8155 ; AOP_STK for _reset_icon_sloc6_1_0
                           8156 ; AOP_STK for _reset_icon_sloc5_1_0
   1871 F8 08              8157 	lda	hl,8(sp)
   1873 5E                 8158 	ld	e,(hl)
   1874 23                 8159 	inc	hl
   1875 56                 8160 	ld	d,(hl)
   1876 1A                 8161 	ld	a,(de)
   1877 23                 8162 	inc	hl
   1878 77                 8163 	ld	(hl),a ; 3
                           8164 ; genCmpLt
                           8165 ; AOP_STK for _reset_icon_y_1_1
                           8166 ; AOP_STK for _reset_icon_sloc5_1_0
                           8167 ; AOP_STK for _reset_icon_sloc7_1_0
   1879 AF                 8168 	xor	a,a
   187A F8 14              8169 	lda	hl,20(sp)
   187C 7E                 8170 	ld	a,(hl)
   187D F8 0A              8171 	lda	hl,10(sp)
   187F 9E                 8172 	sbc	a,(hl) ; 2
   1880 3E 00              8173 	ld	a,#0x00
   1882 17                 8174 	rla
   1883 F8 07              8175 	lda	hl,7(sp)
   1885 77                 8176 	ld	(hl),a ; 3
                           8177 ; genIfx
                           8178 ; AOP_STK for _reset_icon_sloc7_1_0
                           8179 ; Removed redundent or a,a
   1886 AF                 8180 	xor	a,a
   1887 B6                 8181 	or	a,(hl)
   1888 CA F5 18           8182 	jp	z,00107$
                           8183 ;	mypaint.c 340
                           8184 ; genPointerGet
                           8185 ; AOP_STK for _reset_icon_sloc1_1_0
   188B F8 10              8186 	lda	hl,16(sp)
   188D 5E                 8187 	ld	e,(hl)
   188E 23                 8188 	inc	hl
   188F 56                 8189 	ld	d,(hl)
   1890 1A                 8190 	ld	a,(de)
                           8191 ; genPlus
                           8192 ; AOP_STK for _reset_icon_sloc2_1_0
   1891 2B                 8193 	dec	hl
   1892 2B                 8194 	dec	hl
   1893 86                 8195 	add	a,(hl)
                           8196 ; genPlus
                           8197 ; AOP_STK for _reset_icon_y_1_1
                           8198 ; AOP_STK for _reset_icon_sloc8_1_0
   1894 F8 14              8199 	lda	hl,20(sp)
   1896 86                 8200 	add	a,(hl)
   1897 F8 06              8201 	lda	hl,6(sp)
   1899 77                 8202 	ld	(hl),a ; 3
                           8203 ; genLeftShift
                           8204 ; AOP_STK for _reset_icon_sloc8_1_0
                           8205 ; AOP_STK for _reset_icon_sloc10_1_0
   189A 7E                 8206 	ld	a,(hl)
   189B CB 17              8207 	rl	a
   189D CB 17              8208 	rl	a
   189F CB 17              8209 	rl	a
   18A1 CB 17              8210 	rl	a
   18A3 E6 F0              8211 	and	a,#0xF0
   18A5 F8 03              8212 	lda	hl,3(sp)
   18A7 77                 8213 	ld	(hl),a ; 3
                           8214 ; genPlus
                           8215 ; AOP_STK for _reset_icon_sloc10_1_0
                           8216 ; AOP_STK for _reset_icon_sloc9_1_0
   18A8 3E CC              8217 	ld	a,#<_data_buffer
   18AA 86                 8218 	add	a,(hl)
   18AB 23                 8219 	inc	hl
   18AC 77                 8220 	ld	(hl),a ; 3
   18AD 3E 01              8221 	ld	a,#>_data_buffer
   18AF CE 00              8222 	adc	a,#0x00
   18B1 23                 8223 	inc	hl
   18B2 77                 8224 	ld	(hl),a ; 3
                           8225 ; genCast
                           8226 ; AOP_STK for _reset_icon_sloc9_1_0
                           8227 ; AOP_STK for _reset_icon_sloc11_1_0
   18B3 2B                 8228 	dec	hl
   18B4 7E                 8229 	ld	a,(hl)
   18B5 F8 01              8230 	lda	hl,1(sp)
   18B7 77                 8231 	ld	(hl),a ; 3
   18B8 F8 05              8232 	lda	hl,5(sp)
   18BA 7E                 8233 	ld	a,(hl)
   18BB F8 02              8234 	lda	hl,2(sp)
   18BD 77                 8235 	ld	(hl),a ; 3
                           8236 ;	mypaint.c 339
                           8237 ; genPointerGet
                           8238 ; AOP_STK for _reset_icon_sloc3_1_0
   18BE F8 0D              8239 	lda	hl,13(sp)
   18C0 5E                 8240 	ld	e,(hl)
   18C1 23                 8241 	inc	hl
   18C2 56                 8242 	ld	d,(hl)
   18C3 1A                 8243 	ld	a,(de)
                           8244 ; genPlus
                           8245 ; AOP_STK for _reset_icon_y_1_1
   18C4 F8 14              8246 	lda	hl,20(sp)
   18C6 86                 8247 	add	a,(hl)
   18C7 4F                 8248 	ld	c,a
                           8249 ;	mypaint.c 338
                           8250 ; genPointerGet
                           8251 ; AOP_STK for _reset_icon_sloc4_1_0
   18C8 F8 0B              8252 	lda	hl,11(sp)
   18CA 5E                 8253 	ld	e,(hl)
   18CB 23                 8254 	inc	hl
   18CC 56                 8255 	ld	d,(hl)
   18CD 1A                 8256 	ld	a,(de)
                           8257 ; genPlus
                           8258 ; AOP_STK for _reset_icon_x_1_1
                           8259 ; AOP_STK for _reset_icon_sloc12_1_0
   18CE F8 15              8260 	lda	hl,21(sp)
   18D0 86                 8261 	add	a,(hl)
   18D1 F8 00              8262 	lda	hl,0(sp)
   18D3 77                 8263 	ld	(hl),a ; 3
                           8264 ; genIpush
   18D4 21 00 00           8265 	ld	hl,#0x0000
   18D7 E5                 8266 	push	hl
                           8267 ; genIpush
                           8268 ; AOP_STK for _reset_icon_sloc11_1_0
   18D8 F8 03              8269 	lda	hl,3(sp)
   18DA 2A                 8270 	ld	a,(hl+)
   18DB 66                 8271 	ld	h,(hl)
   18DC 6F                 8272 	ld	l,a
   18DD E5                 8273 	push	hl
                           8274 ; genIpush
   18DE 79                 8275 	ld	a,c
   18DF F5                 8276 	push	af
   18E0 33                 8277 	inc	sp
                           8278 ; genIpush
                           8279 ; AOP_STK for _reset_icon_sloc12_1_0
   18E1 F8 05              8280 	lda	hl,5(sp)
   18E3 7E                 8281 	ld	a,(hl)
   18E4 F5                 8282 	push	af
   18E5 33                 8283 	inc	sp
                           8284 ; genCall
   18E6 CD 00 00           8285 	call	_switch_data
   18E9 E8 06              8286 	lda	sp,6(sp)
                           8287 ;	mypaint.c 337
                           8288 ; genPlus
                           8289 ; AOP_STK for _reset_icon_y_1_1
                           8290 ; genPlusIncr
   18EB F8 14              8291 	lda	hl,20(sp)
   18ED 7E                 8292 	ld	a,(hl)
   18EE C6 01              8293 	add	a,#0x01
   18F0 47                 8294 	ld	b,a
                           8295 ; genAssign
                           8296 ; AOP_STK for _reset_icon_y_1_1
   18F1 70                 8297 	ld	(hl),b ; 3
                           8298 ; genGoto
   18F2 C3 71 18           8299 	jp	00101$
                           8300 ; genLabel
   18F5                    8301 00107$:
                           8302 ;	mypaint.c 336
                           8303 ; genPlus
                           8304 ; AOP_STK for _reset_icon_x_1_1
                           8305 ; genPlusIncr
   18F5 F8 15              8306 	lda	hl,21(sp)
   18F7 34                 8307 	inc	(hl)
                           8308 ; genGoto
   18F8 C3 2A 18           8309 	jp	00105$
                           8310 ; genLabel
   18FB                    8311 00109$:
                           8312 ; genEndFunction
   18FB E8 16              8313 	lda	sp,22(sp)
   18FD C1                 8314 	pop bc
   18FE C9                 8315 	ret
   18FF                    8316 ___reset_icon_end:
                           8317 ;	mypaint.c 344
                           8318 ; genLabel
                           8319 ; genFunction
                           8320 ;	---------------------------------
                           8321 ; Function splash
                           8322 ; ---------------------------------
   18FF                    8323 ___splash_start:
   18FF                    8324 _splash:
   18FF C5                 8325 	push	bc
   1900 E8 FE              8326 	lda sp,-2(sp)
                           8327 ;	mypaint.c 348
                           8328 ; genAssign
                           8329 ; AOP_HL for _cursor_x
   1902 21 D1 04           8330 	ld	hl,#_cursor_x + 0
   1905 36 28              8331 	ld	(hl),#0x28
                           8332 ;	mypaint.c 349
                           8333 ; genAssign
                           8334 ; AOP_HL for _cursor_y
   1907 21 D2 04           8335 	ld	hl,#_cursor_y + 0
   190A 36 32              8336 	ld	(hl),#0x32
                           8337 ;	mypaint.c 350
                           8338 ; genAssign
                           8339 ; AOP_HL for _current_cursor
   190C 21 CF 04           8340 	ld	hl,#_current_cursor + 0
   190F 36 01              8341 	ld	(hl),#0x01
                           8342 ;	mypaint.c 351
                           8343 ; genCall
   1911 CD ED 11           8344 	call	_set_cursor
                           8345 ;	mypaint.c 352
                           8346 ; genCall
   1914 CD E5 12           8347 	call	_move_cursor
                           8348 ;	mypaint.c 353
                           8349 ; genOr
                           8350 ; AOP_SFR for _LCDC_REG
                           8351 ; Type res[4] = l[4]&r[1]
                           8352 ; Size res[1] = l[1]&r[1]
   1917 F0 00              8353 	ldh	a,(_LCDC_REG+0) ; x
   1919 F6 02              8354 	or	a,#0x02
   191B E0 00              8355 	ldh	(_LCDC_REG+0),a
                           8356 ; genLabel
   191D                    8357 00101$:
                           8358 ;	mypaint.c 355
                           8359 ; genCmpLt
                           8360 ; AOP_HL for _cursor_x
   191D 21 D1 04           8361 	ld	hl,#_cursor_x + 0
   1920 7E                 8362 	ld	a,(hl)
   1921 FE 78              8363 	cp	#0x78
   1923 D2 4C 19           8364 	jp	nc,00105$
                           8365 ;	mypaint.c 356
                           8366 ; genCall
   1926 CD 00 00           8367 	call	_wait_vbl_done
                           8368 ;	mypaint.c 357
                           8369 ; genCall
   1929 CD E5 12           8370 	call	_move_cursor
                           8371 ;	mypaint.c 358
                           8372 ; genIpush
   192C 3E 00              8373 	ld	a,#0x00
   192E F5                 8374 	push	af
   192F 33                 8375 	inc	sp
                           8376 ; genIpush
   1930 3E 03              8377 	ld	a,#0x03
   1932 F5                 8378 	push	af
   1933 33                 8379 	inc	sp
                           8380 ; genIpush
                           8381 ; AOP_HL for _cursor_y
   1934 21 D2 04           8382 	ld	hl,#_cursor_y + 0
   1937 7E                 8383 	ld	a,(hl)
   1938 F5                 8384 	push	af
   1939 33                 8385 	inc	sp
                           8386 ; genIpush
                           8387 ; AOP_HL for _cursor_x
   193A 21 D1 04           8388 	ld	hl,#_cursor_x + 0
   193D 7E                 8389 	ld	a,(hl)
   193E F5                 8390 	push	af
   193F 33                 8391 	inc	sp
                           8392 ; genCall
   1940 CD 00 00           8393 	call	_plot
   1943 E8 04              8394 	lda	sp,4(sp)
                           8395 ;	mypaint.c 355
                           8396 ; genPlus
                           8397 ; AOP_HL for _cursor_x
                           8398 ; genPlusIncr
   1945 21 D1 04           8399 	ld	hl,#_cursor_x + 0
   1948 34                 8400 	inc	(hl)
                           8401 ; genGoto
   1949 C3 1D 19           8402 	jp	00101$
                           8403 ; genLabel
   194C                    8404 00105$:
                           8405 ;	mypaint.c 360
                           8406 ; genCmpLt
                           8407 ; AOP_HL for _cursor_y
   194C 21 D2 04           8408 	ld	hl,#_cursor_y + 0
   194F 7E                 8409 	ld	a,(hl)
   1950 FE 5E              8410 	cp	#0x5E
   1952 D2 7B 19           8411 	jp	nc,00109$
                           8412 ;	mypaint.c 361
                           8413 ; genCall
   1955 CD 00 00           8414 	call	_wait_vbl_done
                           8415 ;	mypaint.c 362
                           8416 ; genCall
   1958 CD E5 12           8417 	call	_move_cursor
                           8418 ;	mypaint.c 363
                           8419 ; genIpush
   195B 3E 00              8420 	ld	a,#0x00
   195D F5                 8421 	push	af
   195E 33                 8422 	inc	sp
                           8423 ; genIpush
   195F 3E 03              8424 	ld	a,#0x03
   1961 F5                 8425 	push	af
   1962 33                 8426 	inc	sp
                           8427 ; genIpush
                           8428 ; AOP_HL for _cursor_y
   1963 21 D2 04           8429 	ld	hl,#_cursor_y + 0
   1966 7E                 8430 	ld	a,(hl)
   1967 F5                 8431 	push	af
   1968 33                 8432 	inc	sp
                           8433 ; genIpush
                           8434 ; AOP_HL for _cursor_x
   1969 21 D1 04           8435 	ld	hl,#_cursor_x + 0
   196C 7E                 8436 	ld	a,(hl)
   196D F5                 8437 	push	af
   196E 33                 8438 	inc	sp
                           8439 ; genCall
   196F CD 00 00           8440 	call	_plot
   1972 E8 04              8441 	lda	sp,4(sp)
                           8442 ;	mypaint.c 360
                           8443 ; genPlus
                           8444 ; AOP_HL for _cursor_y
                           8445 ; genPlusIncr
   1974 21 D2 04           8446 	ld	hl,#_cursor_y + 0
   1977 34                 8447 	inc	(hl)
                           8448 ; genGoto
   1978 C3 4C 19           8449 	jp	00105$
                           8450 ; genLabel
   197B                    8451 00109$:
                           8452 ;	mypaint.c 365
                           8453 ; genCmpGt
                           8454 ; AOP_HL for _cursor_x
   197B AF                 8455 	xor	a,a
   197C 3E 28              8456 	ld	a,#0x28
   197E 21 D1 04           8457 	ld	hl,#_cursor_x + 0
   1981 9E                 8458 	sbc	a,(hl) ; 2
   1982 D2 AB 19           8459 	jp	nc,00113$
                           8460 ;	mypaint.c 366
                           8461 ; genCall
   1985 CD 00 00           8462 	call	_wait_vbl_done
                           8463 ;	mypaint.c 367
                           8464 ; genCall
   1988 CD E5 12           8465 	call	_move_cursor
                           8466 ;	mypaint.c 368
                           8467 ; genIpush
   198B 3E 00              8468 	ld	a,#0x00
   198D F5                 8469 	push	af
   198E 33                 8470 	inc	sp
                           8471 ; genIpush
   198F 3E 03              8472 	ld	a,#0x03
   1991 F5                 8473 	push	af
   1992 33                 8474 	inc	sp
                           8475 ; genIpush
                           8476 ; AOP_HL for _cursor_y
   1993 21 D2 04           8477 	ld	hl,#_cursor_y + 0
   1996 7E                 8478 	ld	a,(hl)
   1997 F5                 8479 	push	af
   1998 33                 8480 	inc	sp
                           8481 ; genIpush
                           8482 ; AOP_HL for _cursor_x
   1999 21 D1 04           8483 	ld	hl,#_cursor_x + 0
   199C 7E                 8484 	ld	a,(hl)
   199D F5                 8485 	push	af
   199E 33                 8486 	inc	sp
                           8487 ; genCall
   199F CD 00 00           8488 	call	_plot
   19A2 E8 04              8489 	lda	sp,4(sp)
                           8490 ;	mypaint.c 365
                           8491 ; genMinus
                           8492 ; AOP_HL for _cursor_x
   19A4 21 D1 04           8493 	ld	hl,#_cursor_x + 0
   19A7 35                 8494 	dec	(hl)
                           8495 ; genGoto
   19A8 C3 7B 19           8496 	jp	00109$
                           8497 ; genLabel
   19AB                    8498 00113$:
                           8499 ;	mypaint.c 370
                           8500 ; genCmpGt
                           8501 ; AOP_HL for _cursor_y
   19AB AF                 8502 	xor	a,a
   19AC 3E 32              8503 	ld	a,#0x32
   19AE 21 D2 04           8504 	ld	hl,#_cursor_y + 0
   19B1 9E                 8505 	sbc	a,(hl) ; 2
   19B2 D2 DB 19           8506 	jp	nc,00116$
                           8507 ;	mypaint.c 371
                           8508 ; genCall
   19B5 CD 00 00           8509 	call	_wait_vbl_done
                           8510 ;	mypaint.c 372
                           8511 ; genCall
   19B8 CD E5 12           8512 	call	_move_cursor
                           8513 ;	mypaint.c 373
                           8514 ; genIpush
   19BB 3E 00              8515 	ld	a,#0x00
   19BD F5                 8516 	push	af
   19BE 33                 8517 	inc	sp
                           8518 ; genIpush
   19BF 3E 03              8519 	ld	a,#0x03
   19C1 F5                 8520 	push	af
   19C2 33                 8521 	inc	sp
                           8522 ; genIpush
                           8523 ; AOP_HL for _cursor_y
   19C3 21 D2 04           8524 	ld	hl,#_cursor_y + 0
   19C6 7E                 8525 	ld	a,(hl)
   19C7 F5                 8526 	push	af
   19C8 33                 8527 	inc	sp
                           8528 ; genIpush
                           8529 ; AOP_HL for _cursor_x
   19C9 21 D1 04           8530 	ld	hl,#_cursor_x + 0
   19CC 7E                 8531 	ld	a,(hl)
   19CD F5                 8532 	push	af
   19CE 33                 8533 	inc	sp
                           8534 ; genCall
   19CF CD 00 00           8535 	call	_plot
   19D2 E8 04              8536 	lda	sp,4(sp)
                           8537 ;	mypaint.c 370
                           8538 ; genMinus
                           8539 ; AOP_HL for _cursor_y
   19D4 21 D2 04           8540 	ld	hl,#_cursor_y + 0
   19D7 35                 8541 	dec	(hl)
                           8542 ; genGoto
   19D8 C3 AB 19           8543 	jp	00113$
                           8544 ; genLabel
   19DB                    8545 00116$:
                           8546 ;	mypaint.c 375
                           8547 ; genAssign
                           8548 ; AOP_HL for _cursor_x
   19DB 21 D1 04           8549 	ld	hl,#_cursor_x + 0
   19DE 36 50              8550 	ld	(hl),#0x50
                           8551 ;	mypaint.c 376
                           8552 ; genAssign
                           8553 ; AOP_HL for _cursor_y
   19E0 21 D2 04           8554 	ld	hl,#_cursor_y + 0
   19E3 36 48              8555 	ld	(hl),#0x48
                           8556 ;	mypaint.c 377
                           8557 ; genAssign
                           8558 ; AOP_HL for _current_cursor
   19E5 21 CF 04           8559 	ld	hl,#_current_cursor + 0
   19E8 36 03              8560 	ld	(hl),#0x03
                           8561 ;	mypaint.c 378
                           8562 ; genCall
   19EA CD ED 11           8563 	call	_set_cursor
                           8564 ;	mypaint.c 379
                           8565 ; genCall
   19ED CD E5 12           8566 	call	_move_cursor
                           8567 ;	mypaint.c 381
                           8568 ; genAssign
                           8569 ; AOP_STK for _splash_y_1_1
   19F0 F8 01              8570 	lda	hl,1(sp)
   19F2 36 33              8571 	ld	(hl),#0x33 ; 3
                           8572 ; genLabel
   19F4                    8573 00121$:
                           8574 ; genCmpLt
                           8575 ; AOP_STK for _splash_y_1_1
   19F4 F8 01              8576 	lda	hl,1(sp)
   19F6 7E                 8577 	ld	a,(hl)
   19F7 FE 5E              8578 	cp	#0x5E
   19F9 D2 2E 1A           8579 	jp	nc,00125$
                           8580 ;	mypaint.c 382
                           8581 ; genAssign
   19FC 06 29              8582 	ld	b,#0x29
                           8583 ; genLabel
   19FE                    8584 00117$:
                           8585 ; genCmpLt
                           8586 ; AOP_STK for _splash_sloc0_1_0
   19FE 78                 8587 	ld	a,b
   19FF FE 78              8588 	cp	#0x78
   1A01 3E 00              8589 	ld	a,#0x00
   1A03 17                 8590 	rla
   1A04 F8 00              8591 	lda	hl,0(sp)
   1A06 77                 8592 	ld	(hl),a ; 3
                           8593 ; genIfx
                           8594 ; AOP_STK for _splash_sloc0_1_0
                           8595 ; Removed redundent or a,a
   1A07 AF                 8596 	xor	a,a
   1A08 B6                 8597 	or	a,(hl)
   1A09 CA 28 1A           8598 	jp	z,00123$
                           8599 ;	mypaint.c 383
                           8600 ; genIpush
   1A0C 3E 00              8601 	ld	a,#0x00
   1A0E F5                 8602 	push	af
   1A0F 33                 8603 	inc	sp
                           8604 ; genIpush
   1A10 3E 01              8605 	ld	a,#0x01
   1A12 F5                 8606 	push	af
   1A13 33                 8607 	inc	sp
                           8608 ; genIpush
                           8609 ; AOP_STK for _splash_y_1_1
   1A14 23                 8610 	inc	hl
   1A15 7E                 8611 	ld	a,(hl)
   1A16 F5                 8612 	push	af
   1A17 33                 8613 	inc	sp
                           8614 ; genIpush
   1A18 78                 8615 	ld	a,b
   1A19 F5                 8616 	push	af
   1A1A 33                 8617 	inc	sp
                           8618 ; genCall
   1A1B CD 00 00           8619 	call	_plot
   1A1E E8 04              8620 	lda	sp,4(sp)
                           8621 ;	mypaint.c 382
                           8622 ; genPlus
                           8623 ; genPlusIncr
   1A20 78                 8624 	ld	a,b
   1A21 C6 01              8625 	add	a,#0x01
   1A23 4F                 8626 	ld	c,a
                           8627 ; genAssign
   1A24 41                 8628 	ld	b,c
                           8629 ; genGoto
   1A25 C3 FE 19           8630 	jp	00117$
                           8631 ; genLabel
   1A28                    8632 00123$:
                           8633 ;	mypaint.c 381
                           8634 ; genPlus
                           8635 ; AOP_STK for _splash_y_1_1
                           8636 ; genPlusIncr
   1A28 F8 01              8637 	lda	hl,1(sp)
   1A2A 34                 8638 	inc	(hl)
                           8639 ; genGoto
   1A2B C3 F4 19           8640 	jp	00121$
                           8641 ; genLabel
   1A2E                    8642 00125$:
                           8643 ; genEndFunction
   1A2E E8 02              8644 	lda	sp,2(sp)
   1A30 C1                 8645 	pop bc
   1A31 C9                 8646 	ret
   1A32                    8647 ___splash_end:
                           8648 ;	mypaint.c 388
                           8649 ; genLabel
                           8650 ; genFunction
                           8651 ;	---------------------------------
                           8652 ; Function menu
                           8653 ; ---------------------------------
   1A32                    8654 ___menu_start:
   1A32                    8655 _menu:
   1A32 C5                 8656 	push	bc
   1A33 E8 FB              8657 	lda sp,-5(sp)
                           8658 ;	mypaint.c 394
                           8659 ; genAssign
                           8660 ; AOP_STK for _menu_slowdown_1_1
   1A35 F8 02              8661 	lda	hl,2(sp)
   1A37 36 32              8662 	ld	(hl),#0x32 ; 3
                           8663 ;	mypaint.c 396
                           8664 ; genAssign
                           8665 ; AOP_STK for _menu_i_1_1
   1A39 23                 8666 	inc	hl
   1A3A 23                 8667 	inc	hl
   1A3B 36 00              8668 	ld	(hl),#0x00 ; 3
                           8669 ; genLabel
   1A3D                    8670 00137$:
                           8671 ; genCmpLt
                           8672 ; AOP_STK for _menu_i_1_1
   1A3D F8 04              8673 	lda	hl,4(sp)
   1A3F 7E                 8674 	ld	a,(hl)
   1A40 FE 12              8675 	cp	#0x12
   1A42 D2 A7 1A           8676 	jp	nc,00140$
                           8677 ;	mypaint.c 398
                           8678 ; genCmpEq
                           8679 ; AOP_STK for _menu_i_1_1
                           8680 ; AOP_HL for _current_tool
                           8681 ; AOP_STK for _menu_sloc0_1_0
   1A45 21 CC 04           8682 	ld	hl,#_current_tool + 0
   1A48 7E                 8683 	ld	a,(hl)
   1A49 F8 04              8684 	lda	hl,4(sp)
   1A4B BE                 8685 	cp	(hl) ; 5
   1A4C 20 04              8686 	jr	nz,00170$
   1A4E 3E 01              8687 	ld	a,#0x01
   1A50 18 01              8688 	jr	00171$
   1A52                    8689 00170$:
   1A52 AF                 8690 	xor	a,a
   1A53                    8691 00171$:
   1A53 F8 00              8692 	lda	hl,0(sp)
   1A55 77                 8693 	ld	(hl),a ; 3
                           8694 ;	mypaint.c 399
                           8695 ; genPlus
                           8696 ; AOP_HL for _current_color
                           8697 ; genPlusIncr
   1A56 21 CD 04           8698 	ld	hl,#_current_color + 0
   1A59 7E                 8699 	ld	a,(hl)
   1A5A C6 0A              8700 	add	a,#0x0A
                           8701 ; genCmpEq
                           8702 ; AOP_STK for _menu_i_1_1
   1A5C F8 04              8703 	lda	hl,4(sp)
   1A5E BE                 8704 	cp	(hl) ; 5
   1A5F 20 04              8705 	jr	nz,00172$
   1A61 3E 01              8706 	ld	a,#0x01
   1A63 18 01              8707 	jr	00173$
   1A65                    8708 00172$:
   1A65 AF                 8709 	xor	a,a
   1A66                    8710 00173$:
   1A66 4F                 8711 	ld	c,a
                           8712 ; genOrOp
                           8713 ; AOP_STK for _menu_sloc0_1_0
   1A67 AF                 8714 	xor	a,a
   1A68 F8 00              8715 	lda	hl,0(sp)
   1A6A B6                 8716 	or	a,(hl)
   1A6B 20 02              8717 	jr	nz,00174$
   1A6D AF                 8718 	xor	a,a
   1A6E B1                 8719 	or	a,c
   1A6F                    8720 00174$:
   1A6F 28 02              8721 	jr	z,00175$
   1A71 3E 01              8722 	ld	a,#0x01
   1A73                    8723 00175$:
   1A73 F8 00              8724 	lda	hl,0(sp)
   1A75 77                 8725 	ld	(hl),a ; 3
                           8726 ;	mypaint.c 400
                           8727 ; genPlus
                           8728 ; AOP_HL for _current_mode
                           8729 ; genPlusIncr
   1A76 21 CE 04           8730 	ld	hl,#_current_mode + 0
   1A79 7E                 8731 	ld	a,(hl)
   1A7A C6 0E              8732 	add	a,#0x0E
                           8733 ; genCmpEq
                           8734 ; AOP_STK for _menu_i_1_1
   1A7C F8 04              8735 	lda	hl,4(sp)
   1A7E BE                 8736 	cp	(hl) ; 5
   1A7F 20 04              8737 	jr	nz,00176$
   1A81 3E 01              8738 	ld	a,#0x01
   1A83 18 01              8739 	jr	00177$
   1A85                    8740 00176$:
   1A85 AF                 8741 	xor	a,a
   1A86                    8742 00177$:
   1A86 4F                 8743 	ld	c,a
                           8744 ; genOrOp
                           8745 ; AOP_STK for _menu_sloc0_1_0
   1A87 AF                 8746 	xor	a,a
   1A88 F8 00              8747 	lda	hl,0(sp)
   1A8A B6                 8748 	or	a,(hl)
   1A8B 20 02              8749 	jr	nz,00178$
   1A8D AF                 8750 	xor	a,a
   1A8E B1                 8751 	or	a,c
   1A8F                    8752 00178$:
   1A8F 28 02              8753 	jr	z,00179$
   1A91 3E 01              8754 	ld	a,#0x01
   1A93                    8755 00179$:
   1A93 4F                 8756 	ld	c,a
                           8757 ;	mypaint.c 397
                           8758 ; genIpush
   1A94 79                 8759 	ld	a,c
   1A95 F5                 8760 	push	af
   1A96 33                 8761 	inc	sp
                           8762 ; genIpush
                           8763 ; AOP_STK for _menu_i_1_1
   1A97 F8 05              8764 	lda	hl,5(sp)
   1A99 7E                 8765 	ld	a,(hl)
   1A9A F5                 8766 	push	af
   1A9B 33                 8767 	inc	sp
                           8768 ; genCall
   1A9C CD 71 14           8769 	call	_set_icon
   1A9F E8 02              8770 	lda	sp,2(sp)
                           8771 ;	mypaint.c 396
                           8772 ; genPlus
                           8773 ; AOP_STK for _menu_i_1_1
                           8774 ; genPlusIncr
   1AA1 F8 04              8775 	lda	hl,4(sp)
   1AA3 34                 8776 	inc	(hl)
                           8777 ; genGoto
   1AA4 C3 3D 1A           8778 	jp	00137$
                           8779 ; genLabel
   1AA7                    8780 00140$:
                           8781 ;	mypaint.c 402
                           8782 ; genAssign
                           8783 ; AOP_HL for _current_cursor
                           8784 ; AOP_STK for _menu_cursor_1_1
   1AA7 21 CF 04           8785 	ld	hl,#_current_cursor + 0
   1AAA 7E                 8786 	ld	a,(hl)
   1AAB F8 01              8787 	lda	hl,1(sp)
   1AAD 77                 8788 	ld	(hl),a ; 3
                           8789 ;	mypaint.c 403
                           8790 ; genAssign
                           8791 ; AOP_HL for _current_cursor
   1AAE 21 CF 04           8792 	ld	hl,#_current_cursor + 0
   1AB1 36 00              8793 	ld	(hl),#0x00
                           8794 ;	mypaint.c 404
                           8795 ; genCall
   1AB3 CD ED 11           8796 	call	_set_cursor
                           8797 ;	mypaint.c 405
                           8798 ; genCall
   1AB6 CD FA 13           8799 	call	_move_menu_cursor
                           8800 ;	mypaint.c 406
                           8801 ; genOr
                           8802 ; AOP_SFR for _LCDC_REG
                           8803 ; Type res[4] = l[4]&r[1]
                           8804 ; Size res[1] = l[1]&r[1]
   1AB9 F0 00              8805 	ldh	a,(_LCDC_REG+0) ; x
   1ABB F6 02              8806 	or	a,#0x02
   1ABD E0 00              8807 	ldh	(_LCDC_REG+0),a
                           8808 ;	mypaint.c 407
                           8809 ; genCall
   1ABF CD 00 00           8810 	call	_waitpadup
                           8811 ;	mypaint.c 408
                           8812 ; genLabel
   1AC2                    8813 00134$:
                           8814 ;	mypaint.c 409
                           8815 ; genCall
   1AC2 CD 00 00           8816 	call	_wait_vbl_done
                           8817 ;	mypaint.c 410
                           8818 ; genCall
   1AC5 CD 00 00           8819 	call	_joypad
                           8820 ; AOP_STK for _menu_key_1_1
   1AC8 F8 03              8821 	lda	hl,3(sp)
   1ACA 73                 8822 	ld	(hl),e ; 3
                           8823 ;	mypaint.c 411
                           8824 ; genAnd
                           8825 ; AOP_STK for _menu_key_1_1
   1ACB 7E                 8826 	ld	a,(hl)
   1ACC E6 0F              8827 	and	a,#0x0F
   1ACE 20 03              8828 	jr	nz,00180$
   1AD0 C3 C2 1B           8829 	jp	00114$
   1AD3                    8830 00180$:
                           8831 ;	mypaint.c 412
                           8832 ; genAnd
                           8833 ; AOP_STK for _menu_key_1_1
   1AD3 F8 03              8834 	lda	hl,3(sp)
   1AD5 7E                 8835 	ld	a,(hl)
   1AD6 CB 57              8836 	bit	2,a
   1AD8 CA 01 1B           8837 	jp	z,00102$
                           8838 ;	mypaint.c 413
                           8839 ; genIpush
   1ADB 3E 0A              8840 	ld	a,#0x0A
   1ADD F5                 8841 	push	af
   1ADE 33                 8842 	inc	sp
                           8843 ; genIpush
                           8844 ; AOP_HL for _menu_cursor_pos
   1ADF 21 D0 04           8845 	ld	hl,#_menu_cursor_pos + 0
   1AE2 7E                 8846 	ld	a,(hl)
   1AE3 F5                 8847 	push	af
   1AE4 33                 8848 	inc	sp
                           8849 ; genCall
   1AE5 CD 00 00           8850 	call	__muluchar
   1AE8 4B                 8851 	ld	c,e
   1AE9 E8 02              8852 	lda	sp,2(sp)
                           8853 ; genPlus
   1AEB 3E 35              8854 	ld	a,#<_icons
   1AED 81                 8855 	add	a,c
   1AEE 4F                 8856 	ld	c,a
   1AEF 3E 1F              8857 	ld	a,#>_icons
   1AF1 CE 00              8858 	adc	a,#0x00
   1AF3 47                 8859 	ld	b,a
                           8860 ; genPlus
                           8861 ; genPlusIncr
   1AF4 79                 8862 	ld	a,c
   1AF5 C6 05              8863 	add	a,#0x05
   1AF7 5F                 8864 	ld	e,a
   1AF8 78                 8865 	ld	a,b
   1AF9 CE 00              8866 	adc	a,#0x00
   1AFB 57                 8867 	ld	d,a
                           8868 ; genPointerGet
                           8869 ; AOP_HL for _menu_cursor_pos
   1AFC 1A                 8870 	ld	a,(de)
   1AFD 21 D0 04           8871 	ld	hl,#_menu_cursor_pos + 0
   1B00 77                 8872 	ld	(hl),a
                           8873 ; genLabel
   1B01                    8874 00102$:
                           8875 ;	mypaint.c 414
                           8876 ; genAnd
                           8877 ; AOP_STK for _menu_key_1_1
   1B01 F8 03              8878 	lda	hl,3(sp)
   1B03 7E                 8879 	ld	a,(hl)
   1B04 CB 5F              8880 	bit	3,a
   1B06 CA 2F 1B           8881 	jp	z,00104$
                           8882 ;	mypaint.c 415
                           8883 ; genIpush
   1B09 3E 0A              8884 	ld	a,#0x0A
   1B0B F5                 8885 	push	af
   1B0C 33                 8886 	inc	sp
                           8887 ; genIpush
                           8888 ; AOP_HL for _menu_cursor_pos
   1B0D 21 D0 04           8889 	ld	hl,#_menu_cursor_pos + 0
   1B10 7E                 8890 	ld	a,(hl)
   1B11 F5                 8891 	push	af
   1B12 33                 8892 	inc	sp
                           8893 ; genCall
   1B13 CD 00 00           8894 	call	__muluchar
   1B16 4B                 8895 	ld	c,e
   1B17 E8 02              8896 	lda	sp,2(sp)
                           8897 ; genPlus
   1B19 3E 35              8898 	ld	a,#<_icons
   1B1B 81                 8899 	add	a,c
   1B1C 4F                 8900 	ld	c,a
   1B1D 3E 1F              8901 	ld	a,#>_icons
   1B1F CE 00              8902 	adc	a,#0x00
   1B21 47                 8903 	ld	b,a
                           8904 ; genPlus
                           8905 ; genPlusIncr
   1B22 79                 8906 	ld	a,c
   1B23 C6 06              8907 	add	a,#0x06
   1B25 5F                 8908 	ld	e,a
   1B26 78                 8909 	ld	a,b
   1B27 CE 00              8910 	adc	a,#0x00
   1B29 57                 8911 	ld	d,a
                           8912 ; genPointerGet
                           8913 ; AOP_HL for _menu_cursor_pos
   1B2A 1A                 8914 	ld	a,(de)
   1B2B 21 D0 04           8915 	ld	hl,#_menu_cursor_pos + 0
   1B2E 77                 8916 	ld	(hl),a
                           8917 ; genLabel
   1B2F                    8918 00104$:
                           8919 ;	mypaint.c 416
                           8920 ; genAnd
                           8921 ; AOP_STK for _menu_key_1_1
   1B2F F8 03              8922 	lda	hl,3(sp)
   1B31 7E                 8923 	ld	a,(hl)
   1B32 CB 4F              8924 	bit	1,a
   1B34 CA 5D 1B           8925 	jp	z,00106$
                           8926 ;	mypaint.c 417
                           8927 ; genIpush
   1B37 3E 0A              8928 	ld	a,#0x0A
   1B39 F5                 8929 	push	af
   1B3A 33                 8930 	inc	sp
                           8931 ; genIpush
                           8932 ; AOP_HL for _menu_cursor_pos
   1B3B 21 D0 04           8933 	ld	hl,#_menu_cursor_pos + 0
   1B3E 7E                 8934 	ld	a,(hl)
   1B3F F5                 8935 	push	af
   1B40 33                 8936 	inc	sp
                           8937 ; genCall
   1B41 CD 00 00           8938 	call	__muluchar
   1B44 4B                 8939 	ld	c,e
   1B45 E8 02              8940 	lda	sp,2(sp)
                           8941 ; genPlus
   1B47 3E 35              8942 	ld	a,#<_icons
   1B49 81                 8943 	add	a,c
   1B4A 4F                 8944 	ld	c,a
   1B4B 3E 1F              8945 	ld	a,#>_icons
   1B4D CE 00              8946 	adc	a,#0x00
   1B4F 47                 8947 	ld	b,a
                           8948 ; genPlus
                           8949 ; genPlusIncr
   1B50 79                 8950 	ld	a,c
   1B51 C6 07              8951 	add	a,#0x07
   1B53 5F                 8952 	ld	e,a
   1B54 78                 8953 	ld	a,b
   1B55 CE 00              8954 	adc	a,#0x00
   1B57 57                 8955 	ld	d,a
                           8956 ; genPointerGet
                           8957 ; AOP_HL for _menu_cursor_pos
   1B58 1A                 8958 	ld	a,(de)
   1B59 21 D0 04           8959 	ld	hl,#_menu_cursor_pos + 0
   1B5C 77                 8960 	ld	(hl),a
                           8961 ; genLabel
   1B5D                    8962 00106$:
                           8963 ;	mypaint.c 418
                           8964 ; genAnd
                           8965 ; AOP_STK for _menu_key_1_1
   1B5D F8 03              8966 	lda	hl,3(sp)
   1B5F 7E                 8967 	ld	a,(hl)
   1B60 CB 47              8968 	bit	0,a
   1B62 CA 8B 1B           8969 	jp	z,00108$
                           8970 ;	mypaint.c 419
                           8971 ; genIpush
   1B65 3E 0A              8972 	ld	a,#0x0A
   1B67 F5                 8973 	push	af
   1B68 33                 8974 	inc	sp
                           8975 ; genIpush
                           8976 ; AOP_HL for _menu_cursor_pos
   1B69 21 D0 04           8977 	ld	hl,#_menu_cursor_pos + 0
   1B6C 7E                 8978 	ld	a,(hl)
   1B6D F5                 8979 	push	af
   1B6E 33                 8980 	inc	sp
                           8981 ; genCall
   1B6F CD 00 00           8982 	call	__muluchar
   1B72 4B                 8983 	ld	c,e
   1B73 E8 02              8984 	lda	sp,2(sp)
                           8985 ; genPlus
   1B75 3E 35              8986 	ld	a,#<_icons
   1B77 81                 8987 	add	a,c
   1B78 4F                 8988 	ld	c,a
   1B79 3E 1F              8989 	ld	a,#>_icons
   1B7B CE 00              8990 	adc	a,#0x00
   1B7D 47                 8991 	ld	b,a
                           8992 ; genPlus
                           8993 ; genPlusIncr
   1B7E 79                 8994 	ld	a,c
   1B7F C6 08              8995 	add	a,#0x08
   1B81 5F                 8996 	ld	e,a
   1B82 78                 8997 	ld	a,b
   1B83 CE 00              8998 	adc	a,#0x00
   1B85 57                 8999 	ld	d,a
                           9000 ; genPointerGet
                           9001 ; AOP_HL for _menu_cursor_pos
   1B86 1A                 9002 	ld	a,(de)
   1B87 21 D0 04           9003 	ld	hl,#_menu_cursor_pos + 0
   1B8A 77                 9004 	ld	(hl),a
                           9005 ; genLabel
   1B8B                    9006 00108$:
                           9007 ;	mypaint.c 420
                           9008 ; genCall
   1B8B CD FA 13           9009 	call	_move_menu_cursor
                           9010 ;	mypaint.c 421
                           9011 ; genLabel
   1B8E                    9012 00110$:
                           9013 ; genIfx
                           9014 ; AOP_STK for _menu_slowdown_1_1
   1B8E AF                 9015 	xor	a,a
   1B8F F8 02              9016 	lda	hl,2(sp)
   1B91 B6                 9017 	or	a,(hl)
   1B92 B7                 9018 	or	a,a
   1B93 CA BB 1B           9019 	jp	z,00112$
                           9020 ; genCall
   1B96 CD 00 00           9021 	call	_joypad
   1B99 4B                 9022 	ld	c,e
                           9023 ; genCmpEq
                           9024 ; AOP_STK for _menu_key_1_1
                           9025 ; AOP_STK for _menu_sloc0_1_0
   1B9A F8 03              9026 	lda	hl,3(sp)
   1B9C 7E                 9027 	ld	a,(hl)
   1B9D B9                 9028 	cp	c ; 4
   1B9E C2 A5 1B           9029 	jp	nz,00181$
   1BA1 3E 01              9030 	ld	a,#0x01
   1BA3 18 01              9031 	jr	00182$
   1BA5                    9032 00181$:
   1BA5 AF                 9033 	xor	a,a
   1BA6                    9034 00182$:
   1BA6 F8 00              9035 	lda	hl,0(sp)
   1BA8 77                 9036 	ld	(hl),a ; 3
                           9037 ; genIfx
                           9038 ; AOP_STK for _menu_sloc0_1_0
                           9039 ; Removed redundent or a,a
   1BA9 AF                 9040 	xor	a,a
   1BAA B6                 9041 	or	a,(hl)
   1BAB CA BB 1B           9042 	jp	z,00112$
                           9043 ;	mypaint.c 422
                           9044 ; genCall
   1BAE CD 00 00           9045 	call	_wait_vbl_done
                           9046 ;	mypaint.c 423
                           9047 ; genMinus
                           9048 ; AOP_STK for _menu_slowdown_1_1
   1BB1 F8 02              9049 	lda	hl,2(sp)
   1BB3 7E                 9050 	ld	a,(hl)
   1BB4 C6 FF              9051 	add	a,#0xFF
   1BB6 47                 9052 	ld	b,a
                           9053 ; genAssign
                           9054 ; AOP_STK for _menu_slowdown_1_1
   1BB7 70                 9055 	ld	(hl),b ; 3
                           9056 ; genGoto
   1BB8 C3 8E 1B           9057 	jp	00110$
                           9058 ; genLabel
   1BBB                    9059 00112$:
                           9060 ;	mypaint.c 425
                           9061 ; genAssign
                           9062 ; AOP_STK for _menu_slowdown_1_1
   1BBB F8 02              9063 	lda	hl,2(sp)
   1BBD 36 0A              9064 	ld	(hl),#0x0A ; 3
                           9065 ; genGoto
   1BBF C3 C6 1B           9066 	jp	00115$
                           9067 ; genLabel
   1BC2                    9068 00114$:
                           9069 ;	mypaint.c 427
                           9070 ; genAssign
                           9071 ; AOP_STK for _menu_slowdown_1_1
   1BC2 F8 02              9072 	lda	hl,2(sp)
   1BC4 36 32              9073 	ld	(hl),#0x32 ; 3
                           9074 ; genLabel
   1BC6                    9075 00115$:
                           9076 ;	mypaint.c 428
                           9077 ; genAnd
                           9078 ; AOP_STK for _menu_key_1_1
   1BC6 F8 03              9079 	lda	hl,3(sp)
   1BC8 7E                 9080 	ld	a,(hl)
   1BC9 CB 67              9081 	bit	4,a
   1BCB CA BD 1C           9082 	jp	z,00135$
                           9083 ;	mypaint.c 429
                           9084 ; genCmpGt
                           9085 ; AOP_HL for _menu_cursor_pos
   1BCE AF                 9086 	xor	a,a
   1BCF 3E 09              9087 	ld	a,#0x09
   1BD1 21 D0 04           9088 	ld	hl,#_menu_cursor_pos + 0
   1BD4 9E                 9089 	sbc	a,(hl) ; 2
   1BD5 DA 30 1C           9090 	jp	c,00130$
                           9091 ;	mypaint.c 430
                           9092 ; genCmpEq
                           9093 ; AOP_HL for _menu_cursor_pos
                           9094 ; AOP_HL for _current_tool
   1BD8 21 CC 04           9095 	ld	hl,#_current_tool + 0
   1BDB 7E                 9096 	ld	a,(hl)
   1BDC 21 D0 04           9097 	ld	hl,#_menu_cursor_pos + 0
   1BDF BE                 9098 	cp	(hl) ; 5
   1BE0 20 03              9099 	jr	nz,00183$
   1BE2 C3 BD 1C           9100 	jp	00135$
   1BE5                    9101 00183$:
                           9102 ;	mypaint.c 431
                           9103 ; genIpush
   1BE5 3E 00              9104 	ld	a,#0x00
   1BE7 F5                 9105 	push	af
   1BE8 33                 9106 	inc	sp
                           9107 ; genIpush
                           9108 ; AOP_HL for _current_tool
   1BE9 21 CC 04           9109 	ld	hl,#_current_tool + 0
   1BEC 7E                 9110 	ld	a,(hl)
   1BED F5                 9111 	push	af
   1BEE 33                 9112 	inc	sp
                           9113 ; genCall
   1BEF CD 0C 16           9114 	call	_change_icon
   1BF2 E8 02              9115 	lda	sp,2(sp)
                           9116 ;	mypaint.c 432
                           9117 ; genAssign
                           9118 ; AOP_HL for _menu_cursor_pos
                           9119 ; AOP_HL for _current_tool
   1BF4 21 D0 04           9120 	ld	hl,#_menu_cursor_pos + 0
   1BF7 7E                 9121 	ld	a,(hl)
   1BF8 21 CC 04           9122 	ld	hl,#_current_tool + 0
   1BFB 77                 9123 	ld	(hl),a
                           9124 ;	mypaint.c 433
                           9125 ; genIpush
   1BFC 3E 01              9126 	ld	a,#0x01
   1BFE F5                 9127 	push	af
   1BFF 33                 9128 	inc	sp
                           9129 ; genIpush
                           9130 ; AOP_HL for _current_tool
   1C00 7E                 9131 	ld	a,(hl)
   1C01 F5                 9132 	push	af
   1C02 33                 9133 	inc	sp
                           9134 ; genCall
   1C03 CD 0C 16           9135 	call	_change_icon
   1C06 E8 02              9136 	lda	sp,2(sp)
                           9137 ;	mypaint.c 434
                           9138 ; genIpush
   1C08 3E 0A              9139 	ld	a,#0x0A
   1C0A F5                 9140 	push	af
   1C0B 33                 9141 	inc	sp
                           9142 ; genIpush
                           9143 ; AOP_HL for _current_tool
   1C0C 21 CC 04           9144 	ld	hl,#_current_tool + 0
   1C0F 7E                 9145 	ld	a,(hl)
   1C10 F5                 9146 	push	af
   1C11 33                 9147 	inc	sp
                           9148 ; genCall
   1C12 CD 00 00           9149 	call	__muluchar
   1C15 4B                 9150 	ld	c,e
   1C16 E8 02              9151 	lda	sp,2(sp)
                           9152 ; genPlus
   1C18 3E 35              9153 	ld	a,#<_icons
   1C1A 81                 9154 	add	a,c
   1C1B 4F                 9155 	ld	c,a
   1C1C 3E 1F              9156 	ld	a,#>_icons
   1C1E CE 00              9157 	adc	a,#0x00
   1C20 47                 9158 	ld	b,a
                           9159 ; genPlus
                           9160 ; genPlusIncr
   1C21 79                 9161 	ld	a,c
   1C22 C6 09              9162 	add	a,#0x09
   1C24 5F                 9163 	ld	e,a
   1C25 78                 9164 	ld	a,b
   1C26 CE 00              9165 	adc	a,#0x00
   1C28 57                 9166 	ld	d,a
                           9167 ; genPointerGet
                           9168 ; AOP_STK for _menu_cursor_1_1
   1C29 1A                 9169 	ld	a,(de)
   1C2A F8 01              9170 	lda	hl,1(sp)
   1C2C 77                 9171 	ld	(hl),a ; 3
                           9172 ; genGoto
   1C2D C3 BD 1C           9173 	jp	00135$
                           9174 ; genLabel
   1C30                    9175 00130$:
                           9176 ;	mypaint.c 436
                           9177 ; genCmpLt
                           9178 ; AOP_HL for _menu_cursor_pos
   1C30 21 D0 04           9179 	ld	hl,#_menu_cursor_pos + 0
   1C33 7E                 9180 	ld	a,(hl)
   1C34 FE 0A              9181 	cp	#0x0A
   1C36 DA 78 1C           9182 	jp	c,00126$
                           9183 ; genCmpGt
                           9184 ; AOP_HL for _menu_cursor_pos
   1C39 AF                 9185 	xor	a,a
   1C3A 3E 0D              9186 	ld	a,#0x0D
   1C3C 9E                 9187 	sbc	a,(hl) ; 2
   1C3D DA 78 1C           9188 	jp	c,00126$
                           9189 ;	mypaint.c 437
                           9190 ; genPlus
                           9191 ; AOP_HL for _current_color
                           9192 ; genPlusIncr
   1C40 21 CD 04           9193 	ld	hl,#_current_color + 0
   1C43 7E                 9194 	ld	a,(hl)
   1C44 C6 0A              9195 	add	a,#0x0A
   1C46 4F                 9196 	ld	c,a
                           9197 ; genCmpEq
                           9198 ; AOP_HL for _menu_cursor_pos
   1C47 21 D0 04           9199 	ld	hl,#_menu_cursor_pos + 0
   1C4A 7E                 9200 	ld	a,(hl)
   1C4B B9                 9201 	cp	c ; 4
                           9202 ; Rule 5
   1C4C CA BD 1C           9203 	jp	z,00135$
   1C4F                    9204 00184$:
                           9205 ;	mypaint.c 438
                           9206 ; genIpush
   1C4F 3E 00              9207 	ld	a,#0x00
   1C51 F5                 9208 	push	af
   1C52 33                 9209 	inc	sp
                           9210 ; genIpush
   1C53 79                 9211 	ld	a,c
   1C54 F5                 9212 	push	af
   1C55 33                 9213 	inc	sp
                           9214 ; genCall
   1C56 CD 0C 16           9215 	call	_change_icon
   1C59 E8 02              9216 	lda	sp,2(sp)
                           9217 ;	mypaint.c 439
                           9218 ; genMinus
                           9219 ; AOP_HL for _menu_cursor_pos
                           9220 ; AOP_HL for _current_color
   1C5B 21 D0 04           9221 	ld	hl,#_menu_cursor_pos + 0
   1C5E 7E                 9222 	ld	a,(hl)
   1C5F C6 F6              9223 	add	a,#0xF6
   1C61 21 CD 04           9224 	ld	hl,#_current_color + 0
   1C64 77                 9225 	ld	(hl),a
                           9226 ;	mypaint.c 440
                           9227 ; genPlus
                           9228 ; AOP_HL for _current_color
                           9229 ; genPlusIncr
   1C65 7E                 9230 	ld	a,(hl)
   1C66 C6 0A              9231 	add	a,#0x0A
   1C68 4F                 9232 	ld	c,a
                           9233 ; genIpush
   1C69 3E 01              9234 	ld	a,#0x01
   1C6B F5                 9235 	push	af
   1C6C 33                 9236 	inc	sp
                           9237 ; genIpush
   1C6D 79                 9238 	ld	a,c
   1C6E F5                 9239 	push	af
   1C6F 33                 9240 	inc	sp
                           9241 ; genCall
   1C70 CD 0C 16           9242 	call	_change_icon
   1C73 E8 02              9243 	lda	sp,2(sp)
                           9244 ; genGoto
   1C75 C3 BD 1C           9245 	jp	00135$
                           9246 ; genLabel
   1C78                    9247 00126$:
                           9248 ;	mypaint.c 442
                           9249 ; genCmpLt
                           9250 ; AOP_HL for _menu_cursor_pos
   1C78 21 D0 04           9251 	ld	hl,#_menu_cursor_pos + 0
   1C7B 7E                 9252 	ld	a,(hl)
   1C7C FE 0E              9253 	cp	#0x0E
   1C7E DA BD 1C           9254 	jp	c,00135$
                           9255 ; genCmpGt
                           9256 ; AOP_HL for _menu_cursor_pos
   1C81 AF                 9257 	xor	a,a
   1C82 3E 11              9258 	ld	a,#0x11
   1C84 9E                 9259 	sbc	a,(hl) ; 2
   1C85 DA BD 1C           9260 	jp	c,00135$
                           9261 ;	mypaint.c 443
                           9262 ; genPlus
                           9263 ; AOP_HL for _current_mode
                           9264 ; genPlusIncr
   1C88 21 CE 04           9265 	ld	hl,#_current_mode + 0
   1C8B 7E                 9266 	ld	a,(hl)
   1C8C C6 0E              9267 	add	a,#0x0E
   1C8E 4F                 9268 	ld	c,a
                           9269 ; genCmpEq
                           9270 ; AOP_HL for _menu_cursor_pos
   1C8F 21 D0 04           9271 	ld	hl,#_menu_cursor_pos + 0
   1C92 7E                 9272 	ld	a,(hl)
   1C93 B9                 9273 	cp	c ; 4
                           9274 ; Rule 5
   1C94 CA BD 1C           9275 	jp	z,00135$
   1C97                    9276 00185$:
                           9277 ;	mypaint.c 444
                           9278 ; genIpush
   1C97 3E 00              9279 	ld	a,#0x00
   1C99 F5                 9280 	push	af
   1C9A 33                 9281 	inc	sp
                           9282 ; genIpush
   1C9B 79                 9283 	ld	a,c
   1C9C F5                 9284 	push	af
   1C9D 33                 9285 	inc	sp
                           9286 ; genCall
   1C9E CD 0C 16           9287 	call	_change_icon
   1CA1 E8 02              9288 	lda	sp,2(sp)
                           9289 ;	mypaint.c 445
                           9290 ; genMinus
                           9291 ; AOP_HL for _menu_cursor_pos
                           9292 ; AOP_HL for _current_mode
   1CA3 21 D0 04           9293 	ld	hl,#_menu_cursor_pos + 0
   1CA6 7E                 9294 	ld	a,(hl)
   1CA7 C6 F2              9295 	add	a,#0xF2
   1CA9 21 CE 04           9296 	ld	hl,#_current_mode + 0
   1CAC 77                 9297 	ld	(hl),a
                           9298 ;	mypaint.c 446
                           9299 ; genPlus
                           9300 ; AOP_HL for _current_mode
                           9301 ; genPlusIncr
   1CAD 7E                 9302 	ld	a,(hl)
   1CAE C6 0E              9303 	add	a,#0x0E
   1CB0 4F                 9304 	ld	c,a
                           9305 ; genIpush
   1CB1 3E 01              9306 	ld	a,#0x01
   1CB3 F5                 9307 	push	af
   1CB4 33                 9308 	inc	sp
                           9309 ; genIpush
   1CB5 79                 9310 	ld	a,c
   1CB6 F5                 9311 	push	af
   1CB7 33                 9312 	inc	sp
                           9313 ; genCall
   1CB8 CD 0C 16           9314 	call	_change_icon
   1CBB E8 02              9315 	lda	sp,2(sp)
                           9316 ; genLabel
   1CBD                    9317 00135$:
                           9318 ;	mypaint.c 450
                           9319 ; genCmpEq
                           9320 ; AOP_STK for _menu_key_1_1
   1CBD F8 03              9321 	lda	hl,3(sp)
   1CBF 7E                 9322 	ld	a,(hl) ; 2
   1CC0 FE 40              9323 	cp	a,#0x40
   1CC2 C2 C7 1C           9324 	jp	nz,00186$
   1CC5 18 03              9325 	jr	00187$
   1CC7                    9326 00186$:
   1CC7 C3 C2 1A           9327 	jp	00134$
   1CCA                    9328 00187$:
                           9329 ;	mypaint.c 451
                           9330 ; genCall
   1CCA CD 00 00           9331 	call	_waitpadup
                           9332 ;	mypaint.c 452
                           9333 ; genAssign
                           9334 ; AOP_STK for _menu_i_1_1
   1CCD F8 04              9335 	lda	hl,4(sp)
   1CCF 36 00              9336 	ld	(hl),#0x00 ; 3
                           9337 ; genLabel
   1CD1                    9338 00141$:
                           9339 ; genCmpLt
                           9340 ; AOP_STK for _menu_i_1_1
   1CD1 F8 04              9341 	lda	hl,4(sp)
   1CD3 7E                 9342 	ld	a,(hl)
   1CD4 FE 12              9343 	cp	#0x12
   1CD6 D2 E7 1C           9344 	jp	nc,00144$
                           9345 ;	mypaint.c 453
                           9346 ; genIpush
                           9347 ; AOP_STK for _menu_i_1_1
   1CD9 7E                 9348 	ld	a,(hl)
   1CDA F5                 9349 	push	af
   1CDB 33                 9350 	inc	sp
                           9351 ; genCall
   1CDC CD FA 17           9352 	call	_reset_icon
   1CDF E8 01              9353 	lda	sp,1(sp)
                           9354 ;	mypaint.c 452
                           9355 ; genPlus
                           9356 ; AOP_STK for _menu_i_1_1
                           9357 ; genPlusIncr
   1CE1 F8 04              9358 	lda	hl,4(sp)
   1CE3 34                 9359 	inc	(hl)
                           9360 ; genGoto
   1CE4 C3 D1 1C           9361 	jp	00141$
                           9362 ; genLabel
   1CE7                    9363 00144$:
                           9364 ;	mypaint.c 454
                           9365 ; genAnd
                           9366 ; AOP_SFR for _LCDC_REG
   1CE7 F0 00              9367 	ldh	a,(_LCDC_REG+0) ; x
   1CE9 E6 FD              9368 	and	a,#0xFD
   1CEB E0 00              9369 	ldh	(_LCDC_REG+0),a
                           9370 ;	mypaint.c 455
                           9371 ; genAssign
                           9372 ; AOP_STK for _menu_cursor_1_1
                           9373 ; AOP_HL for _current_cursor
   1CED F8 01              9374 	lda	hl,1(sp)
   1CEF 7E                 9375 	ld	a,(hl)
   1CF0 21 CF 04           9376 	ld	hl,#_current_cursor + 0
   1CF3 77                 9377 	ld	(hl),a
                           9378 ; genLabel
   1CF4                    9379 00145$:
                           9380 ; genEndFunction
   1CF4 E8 05              9381 	lda	sp,5(sp)
   1CF6 C1                 9382 	pop bc
   1CF7 C9                 9383 	ret
   1CF8                    9384 ___menu_end:
                           9385 ;	mypaint.c 458
                           9386 ; genLabel
                           9387 ; genFunction
                           9388 ;	---------------------------------
                           9389 ; Function run
                           9390 ; ---------------------------------
   1CF8                    9391 ___run_start:
   1CF8                    9392 _run:
   1CF8 C5                 9393 	push	bc
   1CF9 E8 FB              9394 	lda sp,-5(sp)
                           9395 ;	mypaint.c 464
                           9396 ; genAssign
                           9397 ; AOP_STK for _run_slowdown_1_1
   1CFB F8 03              9398 	lda	hl,3(sp)
   1CFD 36 0A              9399 	ld	(hl),#0x0A ; 3
                           9400 ;	mypaint.c 465
                           9401 ; genAssign
                           9402 ; AOP_STK for _run_erased_1_1
   1CFF 2B                 9403 	dec	hl
   1D00 2B                 9404 	dec	hl
   1D01 36 00              9405 	ld	(hl),#0x00 ; 3
                           9406 ; genAssign
                           9407 ; AOP_STK for _run_drawn_1_1
   1D03 23                 9408 	inc	hl
   1D04 36 00              9409 	ld	(hl),#0x00 ; 3
                           9410 ;	mypaint.c 467
                           9411 ; genCall
   1D06 CD ED 11           9412 	call	_set_cursor
                           9413 ;	mypaint.c 468
                           9414 ; genCall
   1D09 CD E5 12           9415 	call	_move_cursor
                           9416 ;	mypaint.c 469
                           9417 ; genOr
                           9418 ; AOP_SFR for _LCDC_REG
                           9419 ; Type res[4] = l[4]&r[1]
                           9420 ; Size res[1] = l[1]&r[1]
   1D0C F0 00              9421 	ldh	a,(_LCDC_REG+0) ; x
   1D0E F6 02              9422 	or	a,#0x02
   1D10 E0 00              9423 	ldh	(_LCDC_REG+0),a
                           9424 ;	mypaint.c 471
                           9425 ; genLabel
   1D12                    9426 00133$:
                           9427 ;	mypaint.c 472
                           9428 ; genCall
   1D12 CD 00 00           9429 	call	_wait_vbl_done
                           9430 ;	mypaint.c 473
                           9431 ; genCall
   1D15 CD 00 00           9432 	call	_joypad
                           9433 ; AOP_STK for _run_key_1_1
   1D18 F8 04              9434 	lda	hl,4(sp)
   1D1A 73                 9435 	ld	(hl),e ; 3
                           9436 ;	mypaint.c 474
                           9437 ; genAnd
                           9438 ; AOP_STK for _run_key_1_1
   1D1B 7E                 9439 	ld	a,(hl)
   1D1C E6 0F              9440 	and	a,#0x0F
   1D1E 20 03              9441 	jr	nz,00155$
   1D20 C3 AB 1D           9442 	jp	00118$
   1D23                    9443 00155$:
                           9444 ;	mypaint.c 475
                           9445 ; genAnd
                           9446 ; AOP_STK for _run_key_1_1
   1D23 F8 04              9447 	lda	hl,4(sp)
   1D25 7E                 9448 	ld	a,(hl)
   1D26 CB 57              9449 	bit	2,a
   1D28 CA 36 1D           9450 	jp	z,00102$
                           9451 ; genCmpGt
                           9452 ; AOP_HL for _cursor_y
   1D2B AF                 9453 	xor	a,a
   1D2C 3E 00              9454 	ld	a,#0x00
   1D2E 21 D2 04           9455 	ld	hl,#_cursor_y + 0
   1D31 9E                 9456 	sbc	a,(hl) ; 2
   1D32 D2 36 1D           9457 	jp	nc,00102$
                           9458 ;	mypaint.c 476
                           9459 ; genMinus
                           9460 ; AOP_HL for _cursor_y
   1D35 35                 9461 	dec	(hl)
                           9462 ; genLabel
   1D36                    9463 00102$:
                           9464 ;	mypaint.c 477
                           9465 ; genAnd
                           9466 ; AOP_STK for _run_key_1_1
   1D36 F8 04              9467 	lda	hl,4(sp)
   1D38 7E                 9468 	ld	a,(hl)
   1D39 CB 5F              9469 	bit	3,a
   1D3B CA 48 1D           9470 	jp	z,00105$
                           9471 ; genCmpLt
                           9472 ; AOP_HL for _cursor_y
   1D3E 21 D2 04           9473 	ld	hl,#_cursor_y + 0
   1D41 7E                 9474 	ld	a,(hl)
   1D42 FE 8F              9475 	cp	#0x8F
   1D44 D2 48 1D           9476 	jp	nc,00105$
                           9477 ;	mypaint.c 478
                           9478 ; genPlus
                           9479 ; AOP_HL for _cursor_y
                           9480 ; genPlusIncr
   1D47 34                 9481 	inc	(hl)
                           9482 ; genLabel
   1D48                    9483 00105$:
                           9484 ;	mypaint.c 479
                           9485 ; genAnd
                           9486 ; AOP_STK for _run_key_1_1
   1D48 F8 04              9487 	lda	hl,4(sp)
   1D4A 7E                 9488 	ld	a,(hl)
   1D4B CB 4F              9489 	bit	1,a
   1D4D CA 5B 1D           9490 	jp	z,00108$
                           9491 ; genCmpGt
                           9492 ; AOP_HL for _cursor_x
   1D50 AF                 9493 	xor	a,a
   1D51 3E 00              9494 	ld	a,#0x00
   1D53 21 D1 04           9495 	ld	hl,#_cursor_x + 0
   1D56 9E                 9496 	sbc	a,(hl) ; 2
   1D57 D2 5B 1D           9497 	jp	nc,00108$
                           9498 ;	mypaint.c 480
                           9499 ; genMinus
                           9500 ; AOP_HL for _cursor_x
   1D5A 35                 9501 	dec	(hl)
                           9502 ; genLabel
   1D5B                    9503 00108$:
                           9504 ;	mypaint.c 481
                           9505 ; genAnd
                           9506 ; AOP_STK for _run_key_1_1
   1D5B F8 04              9507 	lda	hl,4(sp)
   1D5D 7E                 9508 	ld	a,(hl)
   1D5E CB 47              9509 	bit	0,a
   1D60 CA 6D 1D           9510 	jp	z,00111$
                           9511 ; genCmpLt
                           9512 ; AOP_HL for _cursor_x
   1D63 21 D1 04           9513 	ld	hl,#_cursor_x + 0
   1D66 7E                 9514 	ld	a,(hl)
   1D67 FE 9F              9515 	cp	#0x9F
   1D69 D2 6D 1D           9516 	jp	nc,00111$
                           9517 ;	mypaint.c 482
                           9518 ; genPlus
                           9519 ; AOP_HL for _cursor_x
                           9520 ; genPlusIncr
   1D6C 34                 9521 	inc	(hl)
                           9522 ; genLabel
   1D6D                    9523 00111$:
                           9524 ;	mypaint.c 483
                           9525 ; genCall
   1D6D CD E5 12           9526 	call	_move_cursor
                           9527 ;	mypaint.c 484
                           9528 ; genLabel
   1D70                    9529 00114$:
                           9530 ; genIfx
                           9531 ; AOP_STK for _run_slowdown_1_1
   1D70 AF                 9532 	xor	a,a
   1D71 F8 03              9533 	lda	hl,3(sp)
   1D73 B6                 9534 	or	a,(hl)
   1D74 B7                 9535 	or	a,a
   1D75 CA 9D 1D           9536 	jp	z,00116$
                           9537 ; genCall
   1D78 CD 00 00           9538 	call	_joypad
   1D7B 4B                 9539 	ld	c,e
                           9540 ; genCmpEq
                           9541 ; AOP_STK for _run_key_1_1
                           9542 ; AOP_STK for _run_sloc0_1_0
   1D7C F8 04              9543 	lda	hl,4(sp)
   1D7E 7E                 9544 	ld	a,(hl)
   1D7F B9                 9545 	cp	c ; 4
   1D80 C2 87 1D           9546 	jp	nz,00156$
   1D83 3E 01              9547 	ld	a,#0x01
   1D85 18 01              9548 	jr	00157$
   1D87                    9549 00156$:
   1D87 AF                 9550 	xor	a,a
   1D88                    9551 00157$:
   1D88 F8 00              9552 	lda	hl,0(sp)
   1D8A 77                 9553 	ld	(hl),a ; 3
                           9554 ; genIfx
                           9555 ; AOP_STK for _run_sloc0_1_0
                           9556 ; Removed redundent or a,a
   1D8B AF                 9557 	xor	a,a
   1D8C B6                 9558 	or	a,(hl)
   1D8D CA 9D 1D           9559 	jp	z,00116$
                           9560 ;	mypaint.c 485
                           9561 ; genCall
   1D90 CD 00 00           9562 	call	_wait_vbl_done
                           9563 ;	mypaint.c 486
                           9564 ; genMinus
                           9565 ; AOP_STK for _run_slowdown_1_1
   1D93 F8 03              9566 	lda	hl,3(sp)
   1D95 7E                 9567 	ld	a,(hl)
   1D96 C6 FF              9568 	add	a,#0xFF
   1D98 47                 9569 	ld	b,a
                           9570 ; genAssign
                           9571 ; AOP_STK for _run_slowdown_1_1
   1D99 70                 9572 	ld	(hl),b ; 3
                           9573 ; genGoto
   1D9A C3 70 1D           9574 	jp	00114$
                           9575 ; genLabel
   1D9D                    9576 00116$:
                           9577 ;	mypaint.c 488
                           9578 ; genAssign
                           9579 ; AOP_STK for _run_slowdown_1_1
   1D9D F8 03              9580 	lda	hl,3(sp)
   1D9F 36 01              9581 	ld	(hl),#0x01 ; 3
                           9582 ;	mypaint.c 489
                           9583 ; genAssign
                           9584 ; AOP_STK for _run_erased_1_1
   1DA1 2B                 9585 	dec	hl
   1DA2 2B                 9586 	dec	hl
   1DA3 36 00              9587 	ld	(hl),#0x00 ; 3
                           9588 ; genAssign
                           9589 ; AOP_STK for _run_drawn_1_1
   1DA5 23                 9590 	inc	hl
   1DA6 36 00              9591 	ld	(hl),#0x00 ; 3
                           9592 ; genGoto
   1DA8 C3 AF 1D           9593 	jp	00119$
                           9594 ; genLabel
   1DAB                    9595 00118$:
                           9596 ;	mypaint.c 491
                           9597 ; genAssign
                           9598 ; AOP_STK for _run_slowdown_1_1
   1DAB F8 03              9599 	lda	hl,3(sp)
   1DAD 36 0A              9600 	ld	(hl),#0x0A ; 3
                           9601 ; genLabel
   1DAF                    9602 00119$:
                           9603 ;	mypaint.c 492
                           9604 ; genAnd
                           9605 ; AOP_STK for _run_key_1_1
   1DAF F8 04              9606 	lda	hl,4(sp)
   1DB1 7E                 9607 	ld	a,(hl)
   1DB2 CB 77              9608 	bit	6,a
   1DB4 CA CC 1D           9609 	jp	z,00121$
                           9610 ;	mypaint.c 493
                           9611 ; genAnd
                           9612 ; AOP_SFR for _LCDC_REG
   1DB7 F0 00              9613 	ldh	a,(_LCDC_REG+0) ; x
   1DB9 E6 FD              9614 	and	a,#0xFD
   1DBB E0 00              9615 	ldh	(_LCDC_REG+0),a
                           9616 ;	mypaint.c 494
                           9617 ; genCall
   1DBD CD 32 1A           9618 	call	_menu
                           9619 ;	mypaint.c 495
                           9620 ; genCall
   1DC0 CD ED 11           9621 	call	_set_cursor
                           9622 ;	mypaint.c 496
                           9623 ; genCall
   1DC3 CD E5 12           9624 	call	_move_cursor
                           9625 ;	mypaint.c 497
                           9626 ; genOr
                           9627 ; AOP_SFR for _LCDC_REG
                           9628 ; Type res[4] = l[4]&r[1]
                           9629 ; Size res[1] = l[1]&r[1]
   1DC6 F0 00              9630 	ldh	a,(_LCDC_REG+0) ; x
   1DC8 F6 02              9631 	or	a,#0x02
   1DCA E0 00              9632 	ldh	(_LCDC_REG+0),a
                           9633 ; genLabel
   1DCC                    9634 00121$:
                           9635 ;	mypaint.c 499
                           9636 ; genAnd
                           9637 ; AOP_STK for _run_key_1_1
   1DCC F8 04              9638 	lda	hl,4(sp)
   1DCE 7E                 9639 	ld	a,(hl)
   1DCF E6 30              9640 	and	a,#0x30
   1DD1 4F                 9641 	ld	c,a
                           9642 ; genCmpEq
   1DD2 79                 9643 	ld	a,c ; 2
   1DD3 FE 10              9644 	cp	a,#0x10
   1DD5 C2 DA 1D           9645 	jp	nz,00158$
   1DD8 18 03              9646 	jr	00159$
   1DDA                    9647 00158$:
   1DDA C3 1E 1E           9648 	jp	00125$
   1DDD                    9649 00159$:
                           9650 ;	mypaint.c 500
                           9651 ; genIfx
                           9652 ; AOP_STK for _run_drawn_1_1
   1DDD AF                 9653 	xor	a,a
   1DDE F8 02              9654 	lda	hl,2(sp)
   1DE0 B6                 9655 	or	a,(hl)
   1DE1 B7                 9656 	or	a,a
   1DE2 C2 22 1E           9657 	jp	nz,00126$
                           9658 ;	mypaint.c 501
                           9659 ; genPlus
                           9660 ; AOP_STK for _run_drawn_1_1
                           9661 ; genPlusIncr
   1DE5 34                 9662 	inc	(hl)
                           9663 ;	mypaint.c 502
                           9664 ; genAssign
                           9665 ; AOP_HL for _current_mode
   1DE6 21 CE 04           9666 	ld	hl,#_current_mode + 0
   1DE9 4E                 9667 	ld	c,(hl)
                           9668 ; genPlus
   1DEA 3E 5B              9669 	ld	a,#<_modes
   1DEC 81                 9670 	add	a,c
   1DED 5F                 9671 	ld	e,a
   1DEE 3E 27              9672 	ld	a,#>_modes
   1DF0 CE 00              9673 	adc	a,#0x00
   1DF2 57                 9674 	ld	d,a
                           9675 ; genPointerGet
   1DF3 1A                 9676 	ld	a,(de)
   1DF4 4F                 9677 	ld	c,a
                           9678 ; genAssign
                           9679 ; AOP_HL for _current_color
   1DF5 21 CD 04           9680 	ld	hl,#_current_color + 0
   1DF8 46                 9681 	ld	b,(hl)
                           9682 ; genPlus
   1DF9 3E 57              9683 	ld	a,#<_colors
   1DFB 80                 9684 	add	a,b
   1DFC 5F                 9685 	ld	e,a
   1DFD 3E 27              9686 	ld	a,#>_colors
   1DFF CE 00              9687 	adc	a,#0x00
   1E01 57                 9688 	ld	d,a
                           9689 ; genPointerGet
   1E02 1A                 9690 	ld	a,(de)
   1E03 47                 9691 	ld	b,a
                           9692 ; genIpush
   1E04 79                 9693 	ld	a,c
   1E05 F5                 9694 	push	af
   1E06 33                 9695 	inc	sp
                           9696 ; genIpush
   1E07 78                 9697 	ld	a,b
   1E08 F5                 9698 	push	af
   1E09 33                 9699 	inc	sp
                           9700 ; genIpush
                           9701 ; AOP_HL for _cursor_y
   1E0A 21 D2 04           9702 	ld	hl,#_cursor_y + 0
   1E0D 7E                 9703 	ld	a,(hl)
   1E0E F5                 9704 	push	af
   1E0F 33                 9705 	inc	sp
                           9706 ; genIpush
                           9707 ; AOP_HL for _cursor_x
   1E10 21 D1 04           9708 	ld	hl,#_cursor_x + 0
   1E13 7E                 9709 	ld	a,(hl)
   1E14 F5                 9710 	push	af
   1E15 33                 9711 	inc	sp
                           9712 ; genCall
   1E16 CD 00 00           9713 	call	_plot
   1E19 E8 04              9714 	lda	sp,4(sp)
                           9715 ; genGoto
   1E1B C3 22 1E           9716 	jp	00126$
                           9717 ; genLabel
   1E1E                    9718 00125$:
                           9719 ;	mypaint.c 505
                           9720 ; genAssign
                           9721 ; AOP_STK for _run_drawn_1_1
   1E1E F8 02              9722 	lda	hl,2(sp)
   1E20 36 00              9723 	ld	(hl),#0x00 ; 3
                           9724 ; genLabel
   1E22                    9725 00126$:
                           9726 ;	mypaint.c 506
                           9727 ; genAnd
                           9728 ; AOP_STK for _run_key_1_1
   1E22 F8 04              9729 	lda	hl,4(sp)
   1E24 7E                 9730 	ld	a,(hl)
   1E25 E6 30              9731 	and	a,#0x30
   1E27 4F                 9732 	ld	c,a
                           9733 ; genCmpEq
   1E28 79                 9734 	ld	a,c ; 2
   1E29 FE 20              9735 	cp	a,#0x20
   1E2B C2 30 1E           9736 	jp	nz,00160$
   1E2E 18 03              9737 	jr	00161$
   1E30                    9738 00160$:
   1E30 C3 58 1E           9739 	jp	00130$
   1E33                    9740 00161$:
                           9741 ;	mypaint.c 507
                           9742 ; genIfx
                           9743 ; AOP_STK for _run_erased_1_1
   1E33 AF                 9744 	xor	a,a
   1E34 F8 01              9745 	lda	hl,1(sp)
   1E36 B6                 9746 	or	a,(hl)
   1E37 B7                 9747 	or	a,a
   1E38 C2 12 1D           9748 	jp	nz,00133$
                           9749 ;	mypaint.c 508
                           9750 ; genPlus
                           9751 ; AOP_STK for _run_erased_1_1
                           9752 ; genPlusIncr
   1E3B 34                 9753 	inc	(hl)
                           9754 ;	mypaint.c 509
                           9755 ; genIpush
   1E3C 3E 00              9756 	ld	a,#0x00
   1E3E F5                 9757 	push	af
   1E3F 33                 9758 	inc	sp
                           9759 ; genIpush
   1E40 3E 00              9760 	ld	a,#0x00
   1E42 F5                 9761 	push	af
   1E43 33                 9762 	inc	sp
                           9763 ; genIpush
                           9764 ; AOP_HL for _cursor_y
   1E44 21 D2 04           9765 	ld	hl,#_cursor_y + 0
   1E47 7E                 9766 	ld	a,(hl)
   1E48 F5                 9767 	push	af
   1E49 33                 9768 	inc	sp
                           9769 ; genIpush
                           9770 ; AOP_HL for _cursor_x
   1E4A 21 D1 04           9771 	ld	hl,#_cursor_x + 0
   1E4D 7E                 9772 	ld	a,(hl)
   1E4E F5                 9773 	push	af
   1E4F 33                 9774 	inc	sp
                           9775 ; genCall
   1E50 CD 00 00           9776 	call	_plot
   1E53 E8 04              9777 	lda	sp,4(sp)
                           9778 ; genGoto
   1E55 C3 12 1D           9779 	jp	00133$
                           9780 ; genLabel
   1E58                    9781 00130$:
                           9782 ;	mypaint.c 512
                           9783 ; genAssign
                           9784 ; AOP_STK for _run_erased_1_1
   1E58 F8 01              9785 	lda	hl,1(sp)
   1E5A 36 00              9786 	ld	(hl),#0x00 ; 3
                           9787 ; genGoto
   1E5C C3 12 1D           9788 	jp	00133$
                           9789 ; genLabel
   1E5F                    9790 00135$:
                           9791 ; genEndFunction
   1E5F E8 05              9792 	lda	sp,5(sp)
   1E61 C1                 9793 	pop bc
   1E62 C9                 9794 	ret
   1E63                    9795 ___run_end:
                           9796 ;	mypaint.c 516
                           9797 ; genLabel
                           9798 ; genFunction
                           9799 ;	---------------------------------
                           9800 ; Function delayFrames
                           9801 ; ---------------------------------
   1E63                    9802 ___delayFrames_start:
   1E63                    9803 _delayFrames:
   1E63 C5                 9804 	push	bc
                           9805 ;	mypaint.c 520
                           9806 ; genAssign
   1E64 0E 00              9807 	ld	c,#0x00
                           9808 ; genLabel
   1E66                    9809 00101$:
                           9810 ; genCmpLt
                           9811 ; AOP_STK for 
   1E66 AF                 9812 	xor	a,a
   1E67 79                 9813 	ld	a,c
   1E68 F8 04              9814 	lda	hl,4(sp)
   1E6A 9E                 9815 	sbc	a,(hl) ; 2
   1E6B D2 75 1E           9816 	jp	nc,00105$
                           9817 ;	mypaint.c 522
                           9818 ; genCall
   1E6E CD 00 00           9819 	call	_wait_vbl_done
                           9820 ;	mypaint.c 520
                           9821 ; genPlus
                           9822 ; genPlusIncr
   1E71 0C                 9823 	inc	c
                           9824 ; genGoto
   1E72 C3 66 1E           9825 	jp	00101$
                           9826 ; genLabel
   1E75                    9827 00105$:
                           9828 ; genEndFunction
   1E75 C1                 9829 	pop	bc
   1E76 C9                 9830 	ret
   1E77                    9831 ___delayFrames_end:
                           9832 ;	mypaint.c 526
                           9833 ; genLabel
                           9834 ; genFunction
                           9835 ;	---------------------------------
                           9836 ; Function fontTest
                           9837 ; ---------------------------------
   1E77                    9838 ___fontTest_start:
   1E77                    9839 _fontTest:
   1E77 C5                 9840 	push	bc
                           9841 ;	mypaint.c 533
                           9842 ; genCall
   1E78 CD 00 00           9843 	call	_font_init
                           9844 ;	mypaint.c 538
                           9845 ; genIpush
   1E7B 21 00 00           9846 	ld	hl,#_font_ibm + 0
   1E7E E5                 9847 	push	hl
                           9848 ; genCall
   1E7F CD 00 00           9849 	call	_font_load
   1E82 42                 9850 	ld	b,d
   1E83 4B                 9851 	ld	c,e
   1E84 E8 02              9852 	lda	sp,2(sp)
                           9853 ;	mypaint.c 539
                           9854 ; genIpush
   1E86 21 00 00           9855 	ld	hl,#_font_italic + 0
   1E89 E5                 9856 	push	hl
                           9857 ; genCall
   1E8A CD 00 00           9858 	call	_font_load
   1E8D E8 02              9859 	lda	sp,2(sp)
                           9860 ;	mypaint.c 542
                           9861 ; genIpush
   1E8F 3E 00              9862 	ld	a,#0x00
   1E91 F5                 9863 	push	af
   1E92 33                 9864 	inc	sp
                           9865 ; genIpush
   1E93 3E 02              9866 	ld	a,#0x02
   1E95 F5                 9867 	push	af
   1E96 33                 9868 	inc	sp
                           9869 ; genIpush
   1E97 3E 03              9870 	ld	a,#0x03
   1E99 F5                 9871 	push	af
   1E9A 33                 9872 	inc	sp
                           9873 ; genCall
   1E9B CD 00 00           9874 	call	_color
   1E9E E8 03              9875 	lda	sp,3(sp)
                           9876 ;	mypaint.c 546
                           9877 ; genIpush
   1EA0 C5                 9878 	push	bc
                           9879 ; genCall
   1EA1 CD 00 00           9880 	call	_font_set
   1EA4 E8 02              9881 	lda	sp,2(sp)
                           9882 ;	mypaint.c 548
                           9883 ; genIpush
   1EA6 3E 00              9884 	ld	a,#0x00
   1EA8 F5                 9885 	push	af
   1EA9 33                 9886 	inc	sp
                           9887 ; genIpush
   1EAA 3E 02              9888 	ld	a,#0x02
   1EAC F5                 9889 	push	af
   1EAD 33                 9890 	inc	sp
                           9891 ; genIpush
   1EAE 3E 03              9892 	ld	a,#0x03
   1EB0 F5                 9893 	push	af
   1EB1 33                 9894 	inc	sp
                           9895 ; genCall
   1EB2 CD 00 00           9896 	call	_color
   1EB5 E8 03              9897 	lda	sp,3(sp)
                           9898 ; genLabel
   1EB7                    9899 00101$:
                           9900 ; genEndFunction
   1EB7 C1                 9901 	pop	bc
   1EB8 C9                 9902 	ret
   1EB9                    9903 ___fontTest_end:
                           9904 ;	mypaint.c 578
                           9905 ; genLabel
                           9906 ; genFunction
                           9907 ;	---------------------------------
                           9908 ; Function musicTest
                           9909 ; ---------------------------------
   1EB9                    9910 ___musicTest_start:
   1EB9                    9911 _musicTest:
   1EB9 C5                 9912 	push	bc
                           9913 ;	mypaint.c 580
                           9914 ; genAssign
                           9915 ; AOP_HL for _clock01
   1EBA 21 08 00           9916 	ld	hl,#_clock01 + 0
   1EBD 36 00              9917 	ld	(hl),#0x00
   1EBF 21 09 00           9918 	ld	hl,#_clock01 + 1
   1EC2 36 00              9919 	ld	(hl),#0x00
                           9920 ;	mypaint.c 581
                           9921 ; genAssign
                           9922 ; AOP_HL for _step
   1EC4 21 0A 00           9923 	ld	hl,#_step + 0
   1EC7 36 00              9924 	ld	(hl),#0x00
   1EC9 21 0B 00           9925 	ld	hl,#_step + 1
   1ECC 36 00              9926 	ld	(hl),#0x00
                           9927 ;	mypaint.c 582
                           9928 ; genAssign
                           9929 ; AOP_HL for _patern
   1ECE 21 00 00           9930 	ld	hl,#_patern + 0
   1ED1 36 00              9931 	ld	(hl),#0x00
   1ED3 21 01 00           9932 	ld	hl,#_patern + 1
   1ED6 36 00              9933 	ld	(hl),#0x00
                           9934 ;	mypaint.c 583
                           9935 ; genCall
   1ED8 CD 36 01           9936 	call	_stopmusic
                           9937 ;	mypaint.c 584
                           9938 ; genCall
   1EDB CD 00 00           9939 	call	_patern_definition
                           9940 ;	mypaint.c 586
                           9941 ; genLabel
   1EDE                    9942 00106$:
                           9943 ;	mypaint.c 588
                           9944 ; genCmpLt
                           9945 ; AOP_HL for _clock01
   1EDE 21 09 00           9946 	ld	hl,#_clock01 + 1
   1EE1 7E                 9947 	ld	a,(hl)
   1EE2 EE 80              9948 	xor	a,#0x80
   1EE4 5F                 9949 	ld	e,a
   1EE5 16 80              9950 	ld	d,#0x80
   1EE7 21 08 00           9951 	ld	hl,#_clock01 + 0
   1EEA 7E                 9952 	ld	a,(hl)
   1EEB DE 07              9953 	sbc	a,#0x07 ; 2
   1EED 7B                 9954 	ld	a,e
   1EEE 9A                 9955 	sbc	a,d
   1EEF DA F9 1E           9956 	jp	c,00102$
                           9957 ; genAssign
                           9958 ; AOP_HL for _clock01
   1EF2 36 00              9959 	ld	(hl),#0x00
   1EF4 21 09 00           9960 	ld	hl,#_clock01 + 1
   1EF7 36 00              9961 	ld	(hl),#0x00
                           9962 ; genLabel
   1EF9                    9963 00102$:
                           9964 ;	mypaint.c 590
                           9965 ; genCall
   1EF9 CD 00 00           9966 	call	_wait_vbl_done
                           9967 ;	mypaint.c 592
                           9968 ; genIfx
                           9969 ; AOP_HL for _clock01
   1EFC 21 08 00           9970 	ld	hl,#_clock01 + 0
   1EFF 7E                 9971 	ld	a,(hl)
   1F00 21 09 00           9972 	ld	hl,#_clock01 + 1
   1F03 B6                 9973 	or	a,(hl)
   1F04 B7                 9974 	or	a,a
   1F05 C2 0B 1F           9975 	jp	nz,00104$
                           9976 ; genCall
   1F08 CD 56 11           9977 	call	_music
                           9978 ; genLabel
   1F0B                    9979 00104$:
                           9980 ;	mypaint.c 594
                           9981 ; genPlus
                           9982 ; AOP_HL for _clock01
                           9983 ; genPlusIncr
   1F0B 21 08 00           9984 	ld	hl,#_clock01 + 0
   1F0E 34                 9985 	inc	(hl)
   1F0F 20 04              9986 	jr	nz,00113$
   1F11 21 09 00           9987 	ld	hl,#_clock01 + 1
   1F14 34                 9988 	inc	(hl)
   1F15                    9989 00113$:
                           9990 ;	mypaint.c 595
                           9991 ; genIpush
   1F15 21 5F 27           9992 	ld	hl,#__str_0 + 0
   1F18 E5                 9993 	push	hl
                           9994 ; genCall
   1F19 CD 00 00           9995 	call	_printf
   1F1C E8 02              9996 	lda	sp,2(sp)
                           9997 ; genGoto
   1F1E C3 DE 1E           9998 	jp	00106$
                           9999 ; genLabel
   1F21                   10000 00108$:
                          10001 ; genEndFunction
   1F21 C1                10002 	pop	bc
   1F22 C9                10003 	ret
   1F23                   10004 ___musicTest_end:
                          10005 ;	mypaint.c 602
                          10006 ; genLabel
                          10007 ; genFunction
                          10008 ;	---------------------------------
                          10009 ; Function main
                          10010 ; ---------------------------------
   1F23                   10011 ___main_start:
   1F23                   10012 _main:
   1F23 C5                10013 	push	bc
                          10014 ;	mypaint.c 605
                          10015 ; genAssign
                          10016 ; AOP_SFR for _OBP1_REG
   1F24 3E E0             10017 	ld	a,#0xE0
   1F26 E0 00             10018 	ldh	(_OBP1_REG+0),a
                          10019 ;	mypaint.c 607
                          10020 ; genCall
   1F28 CD 77 1E          10021 	call	_fontTest
                          10022 ;	mypaint.c 609
                          10023 ; genCall
   1F2B CD B9 1E          10024 	call	_musicTest
                          10025 ; genLabel
   1F2E                   10026 00101$:
                          10027 ; genEndFunction
   1F2E C1                10028 	pop	bc
   1F2F C9                10029 	ret
   1F30                   10030 ___main_end:
                          10031 	.area _CODE
   1F30                   10032 _initL:
   1F30 4C                10033 	.db #0x4C
   1F31 45                10034 	.db #0x45
   1F32 4D                10035 	.db #0x4D
   1F33 4F                10036 	.db #0x4F
   1F34 4E                10037 	.db #0x4E
   1F35                   10038 _icons:
   1F35 00                10039 	.db #0x00
   1F36 00                10040 	.db #0x00
   1F37 00                10041 	.db #0x00
   1F38 02                10042 	.db #0x02
   1F39 02                10043 	.db #0x02
   1F3A 0A                10044 	.db #0x0A
   1F3B 02                10045 	.db #0x02
   1F3C 01                10046 	.db #0x01
   1F3D 01                10047 	.db #0x01
   1F3E 01                10048 	.db #0x01
   1F3F 04                10049 	.db #0x04
   1F40 02                10050 	.db #0x02
   1F41 00                10051 	.db #0x00
   1F42 02                10052 	.db #0x02
   1F43 02                10053 	.db #0x02
   1F44 0E                10054 	.db #0x0E
   1F45 03                10055 	.db #0x03
   1F46 00                10056 	.db #0x00
   1F47 00                10057 	.db #0x00
   1F48 02                10058 	.db #0x02
   1F49 08                10059 	.db #0x08
   1F4A 00                10060 	.db #0x00
   1F4B 02                10061 	.db #0x02
   1F4C 02                10062 	.db #0x02
   1F4D 02                10063 	.db #0x02
   1F4E 00                10064 	.db #0x00
   1F4F 04                10065 	.db #0x04
   1F50 03                10066 	.db #0x03
   1F51 03                10067 	.db #0x03
   1F52 03                10068 	.db #0x03
   1F53 0C                10069 	.db #0x0C
   1F54 02                10070 	.db #0x02
   1F55 02                10071 	.db #0x02
   1F56 02                10072 	.db #0x02
   1F57 02                10073 	.db #0x02
   1F58 01                10074 	.db #0x01
   1F59 05                10075 	.db #0x05
   1F5A 02                10076 	.db #0x02
   1F5B 02                10077 	.db #0x02
   1F5C 04                10078 	.db #0x04
   1F5D 10                10079 	.db #0x10
   1F5E 00                10080 	.db #0x00
   1F5F 04                10081 	.db #0x04
   1F60 02                10082 	.db #0x02
   1F61 02                10083 	.db #0x02
   1F62 02                10084 	.db #0x02
   1F63 06                10085 	.db #0x06
   1F64 05                10086 	.db #0x05
   1F65 05                10087 	.db #0x05
   1F66 05                10088 	.db #0x05
   1F67 14                10089 	.db #0x14
   1F68 02                10090 	.db #0x02
   1F69 04                10091 	.db #0x04
   1F6A 02                10092 	.db #0x02
   1F6B 02                10093 	.db #0x02
   1F6C 03                10094 	.db #0x03
   1F6D 07                10095 	.db #0x07
   1F6E 04                10096 	.db #0x04
   1F6F 04                10097 	.db #0x04
   1F70 05                10098 	.db #0x05
   1F71 18                10099 	.db #0x18
   1F72 00                10100 	.db #0x00
   1F73 06                10101 	.db #0x06
   1F74 02                10102 	.db #0x02
   1F75 02                10103 	.db #0x02
   1F76 04                10104 	.db #0x04
   1F77 08                10105 	.db #0x08
   1F78 07                10106 	.db #0x07
   1F79 07                10107 	.db #0x07
   1F7A 05                10108 	.db #0x05
   1F7B 1C                10109 	.db #0x1C
   1F7C 02                10110 	.db #0x02
   1F7D 06                10111 	.db #0x06
   1F7E 02                10112 	.db #0x02
   1F7F 02                10113 	.db #0x02
   1F80 05                10114 	.db #0x05
   1F81 09                10115 	.db #0x09
   1F82 06                10116 	.db #0x06
   1F83 06                10117 	.db #0x06
   1F84 05                10118 	.db #0x05
   1F85 20                10119 	.db #0x20
   1F86 00                10120 	.db #0x00
   1F87 08                10121 	.db #0x08
   1F88 02                10122 	.db #0x02
   1F89 02                10123 	.db #0x02
   1F8A 06                10124 	.db #0x06
   1F8B 0A                10125 	.db #0x0A
   1F8C 09                10126 	.db #0x09
   1F8D 09                10127 	.db #0x09
   1F8E 05                10128 	.db #0x05
   1F8F 24                10129 	.db #0x24
   1F90 02                10130 	.db #0x02
   1F91 08                10131 	.db #0x08
   1F92 02                10132 	.db #0x02
   1F93 02                10133 	.db #0x02
   1F94 07                10134 	.db #0x07
   1F95 0E                10135 	.db #0x0E
   1F96 08                10136 	.db #0x08
   1F97 08                10137 	.db #0x08
   1F98 05                10138 	.db #0x05
   1F99 28                10139 	.db #0x28
   1F9A 00                10140 	.db #0x00
   1F9B 0A                10141 	.db #0x0A
   1F9C 01                10142 	.db #0x01
   1F9D 01                10143 	.db #0x01
   1F9E 08                10144 	.db #0x08
   1F9F 0B                10145 	.db #0x0B
   1FA0 10                10146 	.db #0x10
   1FA1 0C                10147 	.db #0x0C
   1FA2 00                10148 	.db #0x00
   1FA3 29                10149 	.db #0x29
   1FA4 00                10150 	.db #0x00
   1FA5 0B                10151 	.db #0x0B
   1FA6 01                10152 	.db #0x01
   1FA7 01                10153 	.db #0x01
   1FA8 0A                10154 	.db #0x0A
   1FA9 00                10155 	.db #0x00
   1FAA 11                10156 	.db #0x11
   1FAB 0D                10157 	.db #0x0D
   1FAC 00                10158 	.db #0x00
   1FAD 2A                10159 	.db #0x2A
   1FAE 01                10160 	.db #0x01
   1FAF 0A                10161 	.db #0x0A
   1FB0 01                10162 	.db #0x01
   1FB1 01                10163 	.db #0x01
   1FB2 08                10164 	.db #0x08
   1FB3 0D                10165 	.db #0x0D
   1FB4 0A                10166 	.db #0x0A
   1FB5 0E                10167 	.db #0x0E
   1FB6 00                10168 	.db #0x00
   1FB7 2B                10169 	.db #0x2B
   1FB8 01                10170 	.db #0x01
   1FB9 0B                10171 	.db #0x0B
   1FBA 01                10172 	.db #0x01
   1FBB 01                10173 	.db #0x01
   1FBC 0C                10174 	.db #0x0C
   1FBD 00                10175 	.db #0x00
   1FBE 0B                10176 	.db #0x0B
   1FBF 0F                10177 	.db #0x0F
   1FC0 00                10178 	.db #0x00
   1FC1 2C                10179 	.db #0x2C
   1FC2 02                10180 	.db #0x02
   1FC3 0A                10181 	.db #0x0A
   1FC4 01                10182 	.db #0x01
   1FC5 01                10183 	.db #0x01
   1FC6 09                10184 	.db #0x09
   1FC7 0F                10185 	.db #0x0F
   1FC8 0C                10186 	.db #0x0C
   1FC9 10                10187 	.db #0x10
   1FCA 00                10188 	.db #0x00
   1FCB 2D                10189 	.db #0x2D
   1FCC 02                10190 	.db #0x02
   1FCD 0B                10191 	.db #0x0B
   1FCE 01                10192 	.db #0x01
   1FCF 01                10193 	.db #0x01
   1FD0 0E                10194 	.db #0x0E
   1FD1 01                10195 	.db #0x01
   1FD2 0D                10196 	.db #0x0D
   1FD3 11                10197 	.db #0x11
   1FD4 00                10198 	.db #0x00
   1FD5 2E                10199 	.db #0x2E
   1FD6 03                10200 	.db #0x03
   1FD7 0A                10201 	.db #0x0A
   1FD8 01                10202 	.db #0x01
   1FD9 01                10203 	.db #0x01
   1FDA 09                10204 	.db #0x09
   1FDB 11                10205 	.db #0x11
   1FDC 0E                10206 	.db #0x0E
   1FDD 0A                10207 	.db #0x0A
   1FDE 00                10208 	.db #0x00
   1FDF 2F                10209 	.db #0x2F
   1FE0 03                10210 	.db #0x03
   1FE1 0B                10211 	.db #0x0B
   1FE2 01                10212 	.db #0x01
   1FE3 01                10213 	.db #0x01
   1FE4 10                10214 	.db #0x10
   1FE5 01                10215 	.db #0x01
   1FE6 0F                10216 	.db #0x0F
   1FE7 0B                10217 	.db #0x0B
   1FE8 00                10218 	.db #0x00
   1FE9                   10219 _data:
   1FE9 00                10220 	.db #0x00
   1FEA 00                10221 	.db #0x00
   1FEB 7F                10222 	.db #0x7F
   1FEC 00                10223 	.db #0x00
   1FED 7F                10224 	.db #0x7F
   1FEE 00                10225 	.db #0x00
   1FEF 7F                10226 	.db #0x7F
   1FF0 00                10227 	.db #0x00
   1FF1 7F                10228 	.db #0x7F
   1FF2 00                10229 	.db #0x00
   1FF3 7F                10230 	.db #0x7F
   1FF4 00                10231 	.db #0x00
   1FF5 7F                10232 	.db #0x7F
   1FF6 00                10233 	.db #0x00
   1FF7 7F                10234 	.db #0x7F
   1FF8 01                10235 	.db #0x01
   1FF9 7E                10236 	.db #0x7E
   1FFA 02                10237 	.db #0x02
   1FFB 7D                10238 	.db #0x7D
   1FFC 05                10239 	.db #0x05
   1FFD 7B                10240 	.db #0x7B
   1FFE 0A                10241 	.db #0x0A
   1FFF 77                10242 	.db #0x77
   2000 14                10243 	.db #0x14
   2001 7F                10244 	.db #0x7F
   2002 18                10245 	.db #0x18
   2003 7F                10246 	.db #0x7F
   2004 27                10247 	.db #0x27
   2005 7F                10248 	.db #0x7F
   2006 00                10249 	.db #0x00
   2007 00                10250 	.db #0x00
   2008 7F                10251 	.db #0x7F
   2009 00                10252 	.db #0x00
   200A 00                10253 	.db #0x00
   200B FE                10254 	.db #0xFE
   200C 01                10255 	.db #0x01
   200D FE                10256 	.db #0xFE
   200E 0D                10257 	.db #0x0D
   200F F6                10258 	.db #0xF6
   2010 15                10259 	.db #0x15
   2011 EE                10260 	.db #0xEE
   2012 29                10261 	.db #0x29
   2013 DE                10262 	.db #0xDE
   2014 51                10263 	.db #0x51
   2015 BE                10264 	.db #0xBE
   2016 A1                10265 	.db #0xA1
   2017 7E                10266 	.db #0x7E
   2018 41                10267 	.db #0x41
   2019 FE                10268 	.db #0xFE
   201A 81                10269 	.db #0x81
   201B FE                10270 	.db #0xFE
   201C 01                10271 	.db #0x01
   201D FE                10272 	.db #0xFE
   201E 01                10273 	.db #0x01
   201F FE                10274 	.db #0xFE
   2020 01                10275 	.db #0x01
   2021 FE                10276 	.db #0xFE
   2022 01                10277 	.db #0x01
   2023 FE                10278 	.db #0xFE
   2024 FD                10279 	.db #0xFD
   2025 FE                10280 	.db #0xFE
   2026 01                10281 	.db #0x01
   2027 00                10282 	.db #0x00
   2028 FF                10283 	.db #0xFF
   2029 00                10284 	.db #0x00
   202A 00                10285 	.db #0x00
   202B 7F                10286 	.db #0x7F
   202C 00                10287 	.db #0x00
   202D 7F                10288 	.db #0x7F
   202E 00                10289 	.db #0x00
   202F 7F                10290 	.db #0x7F
   2030 00                10291 	.db #0x00
   2031 7F                10292 	.db #0x7F
   2032 00                10293 	.db #0x00
   2033 7F                10294 	.db #0x7F
   2034 00                10295 	.db #0x00
   2035 7F                10296 	.db #0x7F
   2036 00                10297 	.db #0x00
   2037 7F                10298 	.db #0x7F
   2038 01                10299 	.db #0x01
   2039 7E                10300 	.db #0x7E
   203A 02                10301 	.db #0x02
   203B 7D                10302 	.db #0x7D
   203C 0D                10303 	.db #0x0D
   203D 7F                10304 	.db #0x7F
   203E 1E                10305 	.db #0x1E
   203F 7F                10306 	.db #0x7F
   2040 1E                10307 	.db #0x1E
   2041 7F                10308 	.db #0x7F
   2042 1D                10309 	.db #0x1D
   2043 7F                10310 	.db #0x7F
   2044 11                10311 	.db #0x11
   2045 7F                10312 	.db #0x7F
   2046 00                10313 	.db #0x00
   2047 00                10314 	.db #0x00
   2048 7F                10315 	.db #0x7F
   2049 00                10316 	.db #0x00
   204A 00                10317 	.db #0x00
   204B FE                10318 	.db #0xFE
   204C 01                10319 	.db #0x01
   204D FE                10320 	.db #0xFE
   204E 0D                10321 	.db #0x0D
   204F F6                10322 	.db #0xF6
   2050 15                10323 	.db #0x15
   2051 EE                10324 	.db #0xEE
   2052 29                10325 	.db #0x29
   2053 DE                10326 	.db #0xDE
   2054 51                10327 	.db #0x51
   2055 BE                10328 	.db #0xBE
   2056 A1                10329 	.db #0xA1
   2057 7E                10330 	.db #0x7E
   2058 41                10331 	.db #0x41
   2059 FE                10332 	.db #0xFE
   205A 81                10333 	.db #0x81
   205B FE                10334 	.db #0xFE
   205C 01                10335 	.db #0x01
   205D FE                10336 	.db #0xFE
   205E 01                10337 	.db #0x01
   205F FE                10338 	.db #0xFE
   2060 01                10339 	.db #0x01
   2061 FE                10340 	.db #0xFE
   2062 FD                10341 	.db #0xFD
   2063 FE                10342 	.db #0xFE
   2064 FD                10343 	.db #0xFD
   2065 FE                10344 	.db #0xFE
   2066 01                10345 	.db #0x01
   2067 00                10346 	.db #0x00
   2068 FF                10347 	.db #0xFF
   2069 00                10348 	.db #0x00
   206A 00                10349 	.db #0x00
   206B 7F                10350 	.db #0x7F
   206C 00                10351 	.db #0x00
   206D 7F                10352 	.db #0x7F
   206E 00                10353 	.db #0x00
   206F 7F                10354 	.db #0x7F
   2070 01                10355 	.db #0x01
   2071 7F                10356 	.db #0x7F
   2072 02                10357 	.db #0x02
   2073 7E                10358 	.db #0x7E
   2074 0C                10359 	.db #0x0C
   2075 7D                10360 	.db #0x7D
   2076 18                10361 	.db #0x18
   2077 7E                10362 	.db #0x7E
   2078 1D                10363 	.db #0x1D
   2079 7F                10364 	.db #0x7F
   207A 1B                10365 	.db #0x1B
   207B 7F                10366 	.db #0x7F
   207C 19                10367 	.db #0x19
   207D 7F                10368 	.db #0x7F
   207E 18                10369 	.db #0x18
   207F 7F                10370 	.db #0x7F
   2080 08                10371 	.db #0x08
   2081 7F                10372 	.db #0x7F
   2082 08                10373 	.db #0x08
   2083 7F                10374 	.db #0x7F
   2084 08                10375 	.db #0x08
   2085 7F                10376 	.db #0x7F
   2086 00                10377 	.db #0x00
   2087 00                10378 	.db #0x00
   2088 7F                10379 	.db #0x7F
   2089 00                10380 	.db #0x00
   208A 00                10381 	.db #0x00
   208B FE                10382 	.db #0xFE
   208C 01                10383 	.db #0x01
   208D FE                10384 	.db #0xFE
   208E 81                10385 	.db #0x81
   208F FE                10386 	.db #0xFE
   2090 41                10387 	.db #0x41
   2091 7E                10388 	.db #0x7E
   2092 21                10389 	.db #0x21
   2093 BE                10390 	.db #0xBE
   2094 71                10391 	.db #0x71
   2095 5E                10392 	.db #0x5E
   2096 E9                10393 	.db #0xE9
   2097 AE                10394 	.db #0xAE
   2098 C5                10395 	.db #0xC5
   2099 5E                10396 	.db #0x5E
   209A 89                10397 	.db #0x89
   209B BE                10398 	.db #0xBE
   209C 11                10399 	.db #0x11
   209D FE                10400 	.db #0xFE
   209E A1                10401 	.db #0xA1
   209F FE                10402 	.db #0xFE
   20A0 41                10403 	.db #0x41
   20A1 FE                10404 	.db #0xFE
   20A2 01                10405 	.db #0x01
   20A3 FE                10406 	.db #0xFE
   20A4 01                10407 	.db #0x01
   20A5 FE                10408 	.db #0xFE
   20A6 01                10409 	.db #0x01
   20A7 00                10410 	.db #0x00
   20A8 FF                10411 	.db #0xFF
   20A9 00                10412 	.db #0x00
   20AA 00                10413 	.db #0x00
   20AB 7F                10414 	.db #0x7F
   20AC 00                10415 	.db #0x00
   20AD 7F                10416 	.db #0x7F
   20AE 00                10417 	.db #0x00
   20AF 7F                10418 	.db #0x7F
   20B0 00                10419 	.db #0x00
   20B1 7F                10420 	.db #0x7F
   20B2 00                10421 	.db #0x00
   20B3 7F                10422 	.db #0x7F
   20B4 01                10423 	.db #0x01
   20B5 7E                10424 	.db #0x7E
   20B6 02                10425 	.db #0x02
   20B7 7C                10426 	.db #0x7C
   20B8 04                10427 	.db #0x04
   20B9 78                10428 	.db #0x78
   20BA 08                10429 	.db #0x08
   20BB 7F                10430 	.db #0x7F
   20BC 1F                10431 	.db #0x1F
   20BD 71                10432 	.db #0x71
   20BE 11                10433 	.db #0x11
   20BF 7F                10434 	.db #0x7F
   20C0 1F                10435 	.db #0x1F
   20C1 7F                10436 	.db #0x7F
   20C2 00                10437 	.db #0x00
   20C3 7F                10438 	.db #0x7F
   20C4 00                10439 	.db #0x00
   20C5 7F                10440 	.db #0x7F
   20C6 00                10441 	.db #0x00
   20C7 00                10442 	.db #0x00
   20C8 7F                10443 	.db #0x7F
   20C9 00                10444 	.db #0x00
   20CA 00                10445 	.db #0x00
   20CB FE                10446 	.db #0xFE
   20CC 01                10447 	.db #0x01
   20CD FE                10448 	.db #0xFE
   20CE 01                10449 	.db #0x01
   20CF FE                10450 	.db #0xFE
   20D0 01                10451 	.db #0x01
   20D1 FE                10452 	.db #0xFE
   20D2 F9                10453 	.db #0xF9
   20D3 1E                10454 	.db #0x1E
   20D4 19                10455 	.db #0x19
   20D5 2E                10456 	.db #0x2E
   20D6 29                10457 	.db #0x29
   20D7 5E                10458 	.db #0x5E
   20D8 51                10459 	.db #0x51
   20D9 BE                10460 	.db #0xBE
   20DA A1                10461 	.db #0xA1
   20DB 7E                10462 	.db #0x7E
   20DC 41                10463 	.db #0x41
   20DD FE                10464 	.db #0xFE
   20DE 81                10465 	.db #0x81
   20DF FE                10466 	.db #0xFE
   20E0 01                10467 	.db #0x01
   20E1 FE                10468 	.db #0xFE
   20E2 01                10469 	.db #0x01
   20E3 FE                10470 	.db #0xFE
   20E4 01                10471 	.db #0x01
   20E5 FE                10472 	.db #0xFE
   20E6 01                10473 	.db #0x01
   20E7 00                10474 	.db #0x00
   20E8 FF                10475 	.db #0xFF
   20E9 00                10476 	.db #0x00
   20EA 00                10477 	.db #0x00
   20EB 7F                10478 	.db #0x7F
   20EC 00                10479 	.db #0x00
   20ED 7F                10480 	.db #0x7F
   20EE 20                10481 	.db #0x20
   20EF 7F                10482 	.db #0x7F
   20F0 10                10483 	.db #0x10
   20F1 7F                10484 	.db #0x7F
   20F2 08                10485 	.db #0x08
   20F3 7F                10486 	.db #0x7F
   20F4 04                10487 	.db #0x04
   20F5 7F                10488 	.db #0x7F
   20F6 02                10489 	.db #0x02
   20F7 7F                10490 	.db #0x7F
   20F8 01                10491 	.db #0x01
   20F9 7F                10492 	.db #0x7F
   20FA 00                10493 	.db #0x00
   20FB 7F                10494 	.db #0x7F
   20FC 00                10495 	.db #0x00
   20FD 7F                10496 	.db #0x7F
   20FE 00                10497 	.db #0x00
   20FF 7F                10498 	.db #0x7F
   2100 00                10499 	.db #0x00
   2101 7F                10500 	.db #0x7F
   2102 00                10501 	.db #0x00
   2103 7F                10502 	.db #0x7F
   2104 00                10503 	.db #0x00
   2105 7F                10504 	.db #0x7F
   2106 00                10505 	.db #0x00
   2107 00                10506 	.db #0x00
   2108 7F                10507 	.db #0x7F
   2109 00                10508 	.db #0x00
   210A 00                10509 	.db #0x00
   210B FE                10510 	.db #0xFE
   210C 01                10511 	.db #0x01
   210D FE                10512 	.db #0xFE
   210E 01                10513 	.db #0x01
   210F FE                10514 	.db #0xFE
   2110 01                10515 	.db #0x01
   2111 FE                10516 	.db #0xFE
   2112 01                10517 	.db #0x01
   2113 FE                10518 	.db #0xFE
   2114 01                10519 	.db #0x01
   2115 FE                10520 	.db #0xFE
   2116 01                10521 	.db #0x01
   2117 FE                10522 	.db #0xFE
   2118 01                10523 	.db #0x01
   2119 FE                10524 	.db #0xFE
   211A 81                10525 	.db #0x81
   211B FE                10526 	.db #0xFE
   211C 41                10527 	.db #0x41
   211D FE                10528 	.db #0xFE
   211E 21                10529 	.db #0x21
   211F FE                10530 	.db #0xFE
   2120 11                10531 	.db #0x11
   2121 FE                10532 	.db #0xFE
   2122 09                10533 	.db #0x09
   2123 FE                10534 	.db #0xFE
   2124 05                10535 	.db #0x05
   2125 FE                10536 	.db #0xFE
   2126 01                10537 	.db #0x01
   2127 00                10538 	.db #0x00
   2128 FF                10539 	.db #0xFF
   2129 00                10540 	.db #0x00
   212A 00                10541 	.db #0x00
   212B 7F                10542 	.db #0x7F
   212C 00                10543 	.db #0x00
   212D 7F                10544 	.db #0x7F
   212E 00                10545 	.db #0x00
   212F 7F                10546 	.db #0x7F
   2130 1E                10547 	.db #0x1E
   2131 7F                10548 	.db #0x7F
   2132 01                10549 	.db #0x01
   2133 7F                10550 	.db #0x7F
   2134 00                10551 	.db #0x00
   2135 7F                10552 	.db #0x7F
   2136 00                10553 	.db #0x00
   2137 7F                10554 	.db #0x7F
   2138 00                10555 	.db #0x00
   2139 7F                10556 	.db #0x7F
   213A 00                10557 	.db #0x00
   213B 7F                10558 	.db #0x7F
   213C 00                10559 	.db #0x00
   213D 7F                10560 	.db #0x7F
   213E 00                10561 	.db #0x00
   213F 7F                10562 	.db #0x7F
   2140 00                10563 	.db #0x00
   2141 7F                10564 	.db #0x7F
   2142 00                10565 	.db #0x00
   2143 7F                10566 	.db #0x7F
   2144 00                10567 	.db #0x00
   2145 7F                10568 	.db #0x7F
   2146 00                10569 	.db #0x00
   2147 00                10570 	.db #0x00
   2148 7F                10571 	.db #0x7F
   2149 00                10572 	.db #0x00
   214A 00                10573 	.db #0x00
   214B FE                10574 	.db #0xFE
   214C 01                10575 	.db #0x01
   214D FE                10576 	.db #0xFE
   214E 01                10577 	.db #0x01
   214F FE                10578 	.db #0xFE
   2150 01                10579 	.db #0x01
   2151 FE                10580 	.db #0xFE
   2152 81                10581 	.db #0x81
   2153 FE                10582 	.db #0xFE
   2154 41                10583 	.db #0x41
   2155 FE                10584 	.db #0xFE
   2156 21                10585 	.db #0x21
   2157 FE                10586 	.db #0xFE
   2158 11                10587 	.db #0x11
   2159 FE                10588 	.db #0xFE
   215A 11                10589 	.db #0x11
   215B FE                10590 	.db #0xFE
   215C 09                10591 	.db #0x09
   215D FE                10592 	.db #0xFE
   215E 09                10593 	.db #0x09
   215F FE                10594 	.db #0xFE
   2160 09                10595 	.db #0x09
   2161 FE                10596 	.db #0xFE
   2162 09                10597 	.db #0x09
   2163 FE                10598 	.db #0xFE
   2164 01                10599 	.db #0x01
   2165 FE                10600 	.db #0xFE
   2166 01                10601 	.db #0x01
   2167 00                10602 	.db #0x00
   2168 FF                10603 	.db #0xFF
   2169 00                10604 	.db #0x00
   216A 00                10605 	.db #0x00
   216B 7F                10606 	.db #0x7F
   216C 00                10607 	.db #0x00
   216D 7F                10608 	.db #0x7F
   216E 00                10609 	.db #0x00
   216F 7F                10610 	.db #0x7F
   2170 3F                10611 	.db #0x3F
   2171 7F                10612 	.db #0x7F
   2172 20                10613 	.db #0x20
   2173 7F                10614 	.db #0x7F
   2174 20                10615 	.db #0x20
   2175 7F                10616 	.db #0x7F
   2176 20                10617 	.db #0x20
   2177 7F                10618 	.db #0x7F
   2178 20                10619 	.db #0x20
   2179 7F                10620 	.db #0x7F
   217A 20                10621 	.db #0x20
   217B 7F                10622 	.db #0x7F
   217C 20                10623 	.db #0x20
   217D 7F                10624 	.db #0x7F
   217E 20                10625 	.db #0x20
   217F 7F                10626 	.db #0x7F
   2180 20                10627 	.db #0x20
   2181 7F                10628 	.db #0x7F
   2182 3F                10629 	.db #0x3F
   2183 7F                10630 	.db #0x7F
   2184 00                10631 	.db #0x00
   2185 7F                10632 	.db #0x7F
   2186 00                10633 	.db #0x00
   2187 00                10634 	.db #0x00
   2188 7F                10635 	.db #0x7F
   2189 00                10636 	.db #0x00
   218A 00                10637 	.db #0x00
   218B FE                10638 	.db #0xFE
   218C 01                10639 	.db #0x01
   218D FE                10640 	.db #0xFE
   218E 01                10641 	.db #0x01
   218F FE                10642 	.db #0xFE
   2190 FD                10643 	.db #0xFD
   2191 FE                10644 	.db #0xFE
   2192 05                10645 	.db #0x05
   2193 FE                10646 	.db #0xFE
   2194 05                10647 	.db #0x05
   2195 FE                10648 	.db #0xFE
   2196 05                10649 	.db #0x05
   2197 FE                10650 	.db #0xFE
   2198 05                10651 	.db #0x05
   2199 FE                10652 	.db #0xFE
   219A 05                10653 	.db #0x05
   219B FE                10654 	.db #0xFE
   219C 05                10655 	.db #0x05
   219D FE                10656 	.db #0xFE
   219E 05                10657 	.db #0x05
   219F FE                10658 	.db #0xFE
   21A0 05                10659 	.db #0x05
   21A1 FE                10660 	.db #0xFE
   21A2 FD                10661 	.db #0xFD
   21A3 FE                10662 	.db #0xFE
   21A4 01                10663 	.db #0x01
   21A5 FE                10664 	.db #0xFE
   21A6 01                10665 	.db #0x01
   21A7 00                10666 	.db #0x00
   21A8 FF                10667 	.db #0xFF
   21A9 00                10668 	.db #0x00
   21AA 00                10669 	.db #0x00
   21AB 7F                10670 	.db #0x7F
   21AC 00                10671 	.db #0x00
   21AD 7F                10672 	.db #0x7F
   21AE 00                10673 	.db #0x00
   21AF 7F                10674 	.db #0x7F
   21B0 03                10675 	.db #0x03
   21B1 7F                10676 	.db #0x7F
   21B2 0C                10677 	.db #0x0C
   21B3 7F                10678 	.db #0x7F
   21B4 10                10679 	.db #0x10
   21B5 7F                10680 	.db #0x7F
   21B6 20                10681 	.db #0x20
   21B7 7F                10682 	.db #0x7F
   21B8 20                10683 	.db #0x20
   21B9 7F                10684 	.db #0x7F
   21BA 20                10685 	.db #0x20
   21BB 7F                10686 	.db #0x7F
   21BC 20                10687 	.db #0x20
   21BD 7F                10688 	.db #0x7F
   21BE 10                10689 	.db #0x10
   21BF 7F                10690 	.db #0x7F
   21C0 0C                10691 	.db #0x0C
   21C1 7F                10692 	.db #0x7F
   21C2 03                10693 	.db #0x03
   21C3 7F                10694 	.db #0x7F
   21C4 00                10695 	.db #0x00
   21C5 7F                10696 	.db #0x7F
   21C6 00                10697 	.db #0x00
   21C7 00                10698 	.db #0x00
   21C8 7F                10699 	.db #0x7F
   21C9 00                10700 	.db #0x00
   21CA 00                10701 	.db #0x00
   21CB FE                10702 	.db #0xFE
   21CC 01                10703 	.db #0x01
   21CD FE                10704 	.db #0xFE
   21CE 01                10705 	.db #0x01
   21CF FE                10706 	.db #0xFE
   21D0 C1                10707 	.db #0xC1
   21D1 FE                10708 	.db #0xFE
   21D2 31                10709 	.db #0x31
   21D3 FE                10710 	.db #0xFE
   21D4 09                10711 	.db #0x09
   21D5 FE                10712 	.db #0xFE
   21D6 05                10713 	.db #0x05
   21D7 FE                10714 	.db #0xFE
   21D8 05                10715 	.db #0x05
   21D9 FE                10716 	.db #0xFE
   21DA 05                10717 	.db #0x05
   21DB FE                10718 	.db #0xFE
   21DC 05                10719 	.db #0x05
   21DD FE                10720 	.db #0xFE
   21DE 09                10721 	.db #0x09
   21DF FE                10722 	.db #0xFE
   21E0 31                10723 	.db #0x31
   21E1 FE                10724 	.db #0xFE
   21E2 C1                10725 	.db #0xC1
   21E3 FE                10726 	.db #0xFE
   21E4 01                10727 	.db #0x01
   21E5 FE                10728 	.db #0xFE
   21E6 01                10729 	.db #0x01
   21E7 00                10730 	.db #0x00
   21E8 FF                10731 	.db #0xFF
   21E9 00                10732 	.db #0x00
   21EA 00                10733 	.db #0x00
   21EB 7F                10734 	.db #0x7F
   21EC 00                10735 	.db #0x00
   21ED 7F                10736 	.db #0x7F
   21EE 00                10737 	.db #0x00
   21EF 7F                10738 	.db #0x7F
   21F0 3F                10739 	.db #0x3F
   21F1 6A                10740 	.db #0x6A
   21F2 3F                10741 	.db #0x3F
   21F3 75                10742 	.db #0x75
   21F4 3F                10743 	.db #0x3F
   21F5 6A                10744 	.db #0x6A
   21F6 3F                10745 	.db #0x3F
   21F7 75                10746 	.db #0x75
   21F8 3F                10747 	.db #0x3F
   21F9 6A                10748 	.db #0x6A
   21FA 3F                10749 	.db #0x3F
   21FB 75                10750 	.db #0x75
   21FC 3F                10751 	.db #0x3F
   21FD 6A                10752 	.db #0x6A
   21FE 3F                10753 	.db #0x3F
   21FF 75                10754 	.db #0x75
   2200 3F                10755 	.db #0x3F
   2201 7F                10756 	.db #0x7F
   2202 3F                10757 	.db #0x3F
   2203 7F                10758 	.db #0x7F
   2204 00                10759 	.db #0x00
   2205 7F                10760 	.db #0x7F
   2206 00                10761 	.db #0x00
   2207 00                10762 	.db #0x00
   2208 7F                10763 	.db #0x7F
   2209 00                10764 	.db #0x00
   220A 00                10765 	.db #0x00
   220B FE                10766 	.db #0xFE
   220C 01                10767 	.db #0x01
   220D FE                10768 	.db #0xFE
   220E 01                10769 	.db #0x01
   220F FE                10770 	.db #0xFE
   2210 FD                10771 	.db #0xFD
   2211 AE                10772 	.db #0xAE
   2212 FD                10773 	.db #0xFD
   2213 56                10774 	.db #0x56
   2214 FD                10775 	.db #0xFD
   2215 AE                10776 	.db #0xAE
   2216 FD                10777 	.db #0xFD
   2217 56                10778 	.db #0x56
   2218 FD                10779 	.db #0xFD
   2219 AE                10780 	.db #0xAE
   221A FD                10781 	.db #0xFD
   221B 56                10782 	.db #0x56
   221C FD                10783 	.db #0xFD
   221D AE                10784 	.db #0xAE
   221E FD                10785 	.db #0xFD
   221F 56                10786 	.db #0x56
   2220 FD                10787 	.db #0xFD
   2221 FE                10788 	.db #0xFE
   2222 FD                10789 	.db #0xFD
   2223 FE                10790 	.db #0xFE
   2224 01                10791 	.db #0x01
   2225 FE                10792 	.db #0xFE
   2226 01                10793 	.db #0x01
   2227 00                10794 	.db #0x00
   2228 FF                10795 	.db #0xFF
   2229 00                10796 	.db #0x00
   222A 00                10797 	.db #0x00
   222B 7F                10798 	.db #0x7F
   222C 00                10799 	.db #0x00
   222D 7F                10800 	.db #0x7F
   222E 00                10801 	.db #0x00
   222F 7F                10802 	.db #0x7F
   2230 03                10803 	.db #0x03
   2231 7E                10804 	.db #0x7E
   2232 0F                10805 	.db #0x0F
   2233 75                10806 	.db #0x75
   2234 1F                10807 	.db #0x1F
   2235 6A                10808 	.db #0x6A
   2236 3F                10809 	.db #0x3F
   2237 75                10810 	.db #0x75
   2238 3F                10811 	.db #0x3F
   2239 6A                10812 	.db #0x6A
   223A 3F                10813 	.db #0x3F
   223B 75                10814 	.db #0x75
   223C 3F                10815 	.db #0x3F
   223D 7A                10816 	.db #0x7A
   223E 1F                10817 	.db #0x1F
   223F 7D                10818 	.db #0x7D
   2240 0F                10819 	.db #0x0F
   2241 7F                10820 	.db #0x7F
   2242 03                10821 	.db #0x03
   2243 7F                10822 	.db #0x7F
   2244 00                10823 	.db #0x00
   2245 7F                10824 	.db #0x7F
   2246 00                10825 	.db #0x00
   2247 00                10826 	.db #0x00
   2248 7F                10827 	.db #0x7F
   2249 00                10828 	.db #0x00
   224A 00                10829 	.db #0x00
   224B FE                10830 	.db #0xFE
   224C 01                10831 	.db #0x01
   224D FE                10832 	.db #0xFE
   224E 01                10833 	.db #0x01
   224F FE                10834 	.db #0xFE
   2250 C1                10835 	.db #0xC1
   2251 BE                10836 	.db #0xBE
   2252 F1                10837 	.db #0xF1
   2253 5E                10838 	.db #0x5E
   2254 F9                10839 	.db #0xF9
   2255 AE                10840 	.db #0xAE
   2256 FD                10841 	.db #0xFD
   2257 56                10842 	.db #0x56
   2258 FD                10843 	.db #0xFD
   2259 AE                10844 	.db #0xAE
   225A FD                10845 	.db #0xFD
   225B 56                10846 	.db #0x56
   225C FD                10847 	.db #0xFD
   225D AE                10848 	.db #0xAE
   225E F9                10849 	.db #0xF9
   225F 7E                10850 	.db #0x7E
   2260 F1                10851 	.db #0xF1
   2261 FE                10852 	.db #0xFE
   2262 C1                10853 	.db #0xC1
   2263 FE                10854 	.db #0xFE
   2264 01                10855 	.db #0x01
   2265 FE                10856 	.db #0xFE
   2266 01                10857 	.db #0x01
   2267 00                10858 	.db #0x00
   2268 FF                10859 	.db #0xFF
   2269 00                10860 	.db #0x00
   226A 00                10861 	.db #0x00
   226B 7F                10862 	.db #0x7F
   226C 7F                10863 	.db #0x7F
   226D 40                10864 	.db #0x40
   226E 40                10865 	.db #0x40
   226F 40                10866 	.db #0x40
   2270 40                10867 	.db #0x40
   2271 40                10868 	.db #0x40
   2272 40                10869 	.db #0x40
   2273 40                10870 	.db #0x40
   2274 40                10871 	.db #0x40
   2275 40                10872 	.db #0x40
   2276 40                10873 	.db #0x40
   2277 40                10874 	.db #0x40
   2278 40                10875 	.db #0x40
   2279 40                10876 	.db #0x40
   227A 7F                10877 	.db #0x7F
   227B 40                10878 	.db #0x40
   227C 7F                10879 	.db #0x7F
   227D 40                10880 	.db #0x40
   227E 7F                10881 	.db #0x7F
   227F 40                10882 	.db #0x40
   2280 7F                10883 	.db #0x7F
   2281 40                10884 	.db #0x40
   2282 7F                10885 	.db #0x7F
   2283 40                10886 	.db #0x40
   2284 7F                10887 	.db #0x7F
   2285 7F                10888 	.db #0x7F
   2286 7F                10889 	.db #0x7F
   2287 00                10890 	.db #0x00
   2288 7F                10891 	.db #0x7F
   2289 00                10892 	.db #0x00
   228A 00                10893 	.db #0x00
   228B FE                10894 	.db #0xFE
   228C FF                10895 	.db #0xFF
   228D FE                10896 	.db #0xFE
   228E 03                10897 	.db #0x03
   228F FE                10898 	.db #0xFE
   2290 03                10899 	.db #0x03
   2291 FE                10900 	.db #0xFE
   2292 03                10901 	.db #0x03
   2293 FE                10902 	.db #0xFE
   2294 03                10903 	.db #0x03
   2295 FE                10904 	.db #0xFE
   2296 03                10905 	.db #0x03
   2297 FE                10906 	.db #0xFE
   2298 03                10907 	.db #0x03
   2299 FE                10908 	.db #0xFE
   229A FF                10909 	.db #0xFF
   229B FE                10910 	.db #0xFE
   229C FF                10911 	.db #0xFF
   229D FE                10912 	.db #0xFE
   229E FF                10913 	.db #0xFF
   229F FE                10914 	.db #0xFE
   22A0 FF                10915 	.db #0xFF
   22A1 FE                10916 	.db #0xFE
   22A2 FF                10917 	.db #0xFF
   22A3 FE                10918 	.db #0xFE
   22A4 FF                10919 	.db #0xFF
   22A5 FE                10920 	.db #0xFE
   22A6 FF                10921 	.db #0xFF
   22A7 00                10922 	.db #0x00
   22A8 FF                10923 	.db #0xFF
   22A9 00                10924 	.db #0x00
   22AA 00                10925 	.db #0x00
   22AB 7F                10926 	.db #0x7F
   22AC 00                10927 	.db #0x00
   22AD 7F                10928 	.db #0x7F
   22AE 0C                10929 	.db #0x0C
   22AF 7F                10930 	.db #0x7F
   22B0 10                10931 	.db #0x10
   22B1 7F                10932 	.db #0x7F
   22B2 08                10933 	.db #0x08
   22B3 7F                10934 	.db #0x7F
   22B4 04                10935 	.db #0x04
   22B5 7F                10936 	.db #0x7F
   22B6 18                10937 	.db #0x18
   22B7 7F                10938 	.db #0x7F
   22B8 00                10939 	.db #0x00
   22B9 7F                10940 	.db #0x7F
   22BA 00                10941 	.db #0x00
   22BB 7F                10942 	.db #0x7F
   22BC 08                10943 	.db #0x08
   22BD 7F                10944 	.db #0x7F
   22BE 14                10945 	.db #0x14
   22BF 7F                10946 	.db #0x7F
   22C0 14                10947 	.db #0x14
   22C1 7F                10948 	.db #0x7F
   22C2 14                10949 	.db #0x14
   22C3 7F                10950 	.db #0x7F
   22C4 08                10951 	.db #0x08
   22C5 7F                10952 	.db #0x7F
   22C6 00                10953 	.db #0x00
   22C7 00                10954 	.db #0x00
   22C8 7F                10955 	.db #0x7F
   22C9 00                10956 	.db #0x00
   22CA 01                10957 	.db #0x01
   22CB FE                10958 	.db #0xFE
   22CC 01                10959 	.db #0x01
   22CD FE                10960 	.db #0xFE
   22CE 29                10961 	.db #0x29
   22CF FE                10962 	.db #0xFE
   22D0 29                10963 	.db #0x29
   22D1 FE                10964 	.db #0xFE
   22D2 11                10965 	.db #0x11
   22D3 FE                10966 	.db #0xFE
   22D4 29                10967 	.db #0x29
   22D5 FE                10968 	.db #0xFE
   22D6 29                10969 	.db #0x29
   22D7 FE                10970 	.db #0xFE
   22D8 01                10971 	.db #0x01
   22D9 FE                10972 	.db #0xFE
   22DA 01                10973 	.db #0x01
   22DB FE                10974 	.db #0xFE
   22DC 11                10975 	.db #0x11
   22DD FE                10976 	.db #0xFE
   22DE 29                10977 	.db #0x29
   22DF FE                10978 	.db #0xFE
   22E0 39                10979 	.db #0x39
   22E1 FE                10980 	.db #0xFE
   22E2 29                10981 	.db #0x29
   22E3 FE                10982 	.db #0xFE
   22E4 29                10983 	.db #0x29
   22E5 FE                10984 	.db #0xFE
   22E6 01                10985 	.db #0x01
   22E7 00                10986 	.db #0x00
   22E8 FF                10987 	.db #0xFF
   22E9                   10988 _selected_data:
   22E9 FF                10989 	.db #0xFF
   22EA FF                10990 	.db #0xFF
   22EB 80                10991 	.db #0x80
   22EC FF                10992 	.db #0xFF
   22ED 80                10993 	.db #0x80
   22EE FF                10994 	.db #0xFF
   22EF 80                10995 	.db #0x80
   22F0 FF                10996 	.db #0xFF
   22F1 80                10997 	.db #0x80
   22F2 FF                10998 	.db #0xFF
   22F3 80                10999 	.db #0x80
   22F4 FF                11000 	.db #0xFF
   22F5 80                11001 	.db #0x80
   22F6 FF                11002 	.db #0xFF
   22F7 80                11003 	.db #0x80
   22F8 FE                11004 	.db #0xFE
   22F9 81                11005 	.db #0x81
   22FA FD                11006 	.db #0xFD
   22FB 82                11007 	.db #0x82
   22FC FA                11008 	.db #0xFA
   22FD 84                11009 	.db #0x84
   22FE F5                11010 	.db #0xF5
   22FF 88                11011 	.db #0x88
   2300 EB                11012 	.db #0xEB
   2301 80                11013 	.db #0x80
   2302 E7                11014 	.db #0xE7
   2303 80                11015 	.db #0x80
   2304 D8                11016 	.db #0xD8
   2305 80                11017 	.db #0x80
   2306 FF                11018 	.db #0xFF
   2307 FF                11019 	.db #0xFF
   2308 80                11020 	.db #0x80
   2309 FF                11021 	.db #0xFF
   230A FF                11022 	.db #0xFF
   230B 01                11023 	.db #0x01
   230C FE                11024 	.db #0xFE
   230D 01                11025 	.db #0x01
   230E F2                11026 	.db #0xF2
   230F 09                11027 	.db #0x09
   2310 EA                11028 	.db #0xEA
   2311 11                11029 	.db #0x11
   2312 D6                11030 	.db #0xD6
   2313 21                11031 	.db #0x21
   2314 AE                11032 	.db #0xAE
   2315 41                11033 	.db #0x41
   2316 5E                11034 	.db #0x5E
   2317 81                11035 	.db #0x81
   2318 BE                11036 	.db #0xBE
   2319 01                11037 	.db #0x01
   231A 7E                11038 	.db #0x7E
   231B 01                11039 	.db #0x01
   231C FE                11040 	.db #0xFE
   231D 01                11041 	.db #0x01
   231E FE                11042 	.db #0xFE
   231F 01                11043 	.db #0x01
   2320 FE                11044 	.db #0xFE
   2321 01                11045 	.db #0x01
   2322 FE                11046 	.db #0xFE
   2323 01                11047 	.db #0x01
   2324 02                11048 	.db #0x02
   2325 01                11049 	.db #0x01
   2326 FE                11050 	.db #0xFE
   2327 FF                11051 	.db #0xFF
   2328 00                11052 	.db #0x00
   2329 FF                11053 	.db #0xFF
   232A FF                11054 	.db #0xFF
   232B 80                11055 	.db #0x80
   232C FF                11056 	.db #0xFF
   232D 80                11057 	.db #0x80
   232E FF                11058 	.db #0xFF
   232F 80                11059 	.db #0x80
   2330 FF                11060 	.db #0xFF
   2331 80                11061 	.db #0x80
   2332 FF                11062 	.db #0xFF
   2333 80                11063 	.db #0x80
   2334 FF                11064 	.db #0xFF
   2335 80                11065 	.db #0x80
   2336 FF                11066 	.db #0xFF
   2337 80                11067 	.db #0x80
   2338 FE                11068 	.db #0xFE
   2339 81                11069 	.db #0x81
   233A FD                11070 	.db #0xFD
   233B 82                11071 	.db #0x82
   233C F2                11072 	.db #0xF2
   233D 80                11073 	.db #0x80
   233E E1                11074 	.db #0xE1
   233F 80                11075 	.db #0x80
   2340 E1                11076 	.db #0xE1
   2341 80                11077 	.db #0x80
   2342 E2                11078 	.db #0xE2
   2343 80                11079 	.db #0x80
   2344 EE                11080 	.db #0xEE
   2345 80                11081 	.db #0x80
   2346 FF                11082 	.db #0xFF
   2347 FF                11083 	.db #0xFF
   2348 80                11084 	.db #0x80
   2349 FF                11085 	.db #0xFF
   234A FF                11086 	.db #0xFF
   234B 01                11087 	.db #0x01
   234C FE                11088 	.db #0xFE
   234D 01                11089 	.db #0x01
   234E F2                11090 	.db #0xF2
   234F 09                11091 	.db #0x09
   2350 EA                11092 	.db #0xEA
   2351 11                11093 	.db #0x11
   2352 D6                11094 	.db #0xD6
   2353 21                11095 	.db #0x21
   2354 AE                11096 	.db #0xAE
   2355 41                11097 	.db #0x41
   2356 5E                11098 	.db #0x5E
   2357 81                11099 	.db #0x81
   2358 BE                11100 	.db #0xBE
   2359 01                11101 	.db #0x01
   235A 7E                11102 	.db #0x7E
   235B 01                11103 	.db #0x01
   235C FE                11104 	.db #0xFE
   235D 01                11105 	.db #0x01
   235E FE                11106 	.db #0xFE
   235F 01                11107 	.db #0x01
   2360 FE                11108 	.db #0xFE
   2361 01                11109 	.db #0x01
   2362 02                11110 	.db #0x02
   2363 01                11111 	.db #0x01
   2364 02                11112 	.db #0x02
   2365 01                11113 	.db #0x01
   2366 FE                11114 	.db #0xFE
   2367 FF                11115 	.db #0xFF
   2368 00                11116 	.db #0x00
   2369 FF                11117 	.db #0xFF
   236A FF                11118 	.db #0xFF
   236B 80                11119 	.db #0x80
   236C FF                11120 	.db #0xFF
   236D 80                11121 	.db #0x80
   236E FF                11122 	.db #0xFF
   236F 80                11123 	.db #0x80
   2370 FE                11124 	.db #0xFE
   2371 80                11125 	.db #0x80
   2372 FD                11126 	.db #0xFD
   2373 81                11127 	.db #0x81
   2374 F3                11128 	.db #0xF3
   2375 82                11129 	.db #0x82
   2376 E7                11130 	.db #0xE7
   2377 81                11131 	.db #0x81
   2378 E2                11132 	.db #0xE2
   2379 80                11133 	.db #0x80
   237A E4                11134 	.db #0xE4
   237B 80                11135 	.db #0x80
   237C E7                11136 	.db #0xE7
   237D 80                11137 	.db #0x80
   237E E7                11138 	.db #0xE7
   237F 80                11139 	.db #0x80
   2380 F7                11140 	.db #0xF7
   2381 80                11141 	.db #0x80
   2382 F7                11142 	.db #0xF7
   2383 80                11143 	.db #0x80
   2384 F7                11144 	.db #0xF7
   2385 80                11145 	.db #0x80
   2386 FF                11146 	.db #0xFF
   2387 FF                11147 	.db #0xFF
   2388 80                11148 	.db #0x80
   2389 FF                11149 	.db #0xFF
   238A FF                11150 	.db #0xFF
   238B 01                11151 	.db #0x01
   238C FE                11152 	.db #0xFE
   238D 01                11153 	.db #0x01
   238E 7E                11154 	.db #0x7E
   238F 01                11155 	.db #0x01
   2390 BE                11156 	.db #0xBE
   2391 81                11157 	.db #0x81
   2392 DE                11158 	.db #0xDE
   2393 41                11159 	.db #0x41
   2394 8E                11160 	.db #0x8E
   2395 A1                11161 	.db #0xA1
   2396 16                11162 	.db #0x16
   2397 51                11163 	.db #0x51
   2398 3A                11164 	.db #0x3A
   2399 A1                11165 	.db #0xA1
   239A 76                11166 	.db #0x76
   239B 41                11167 	.db #0x41
   239C EE                11168 	.db #0xEE
   239D 01                11169 	.db #0x01
   239E 5E                11170 	.db #0x5E
   239F 01                11171 	.db #0x01
   23A0 BE                11172 	.db #0xBE
   23A1 01                11173 	.db #0x01
   23A2 FE                11174 	.db #0xFE
   23A3 01                11175 	.db #0x01
   23A4 FE                11176 	.db #0xFE
   23A5 01                11177 	.db #0x01
   23A6 FE                11178 	.db #0xFE
   23A7 FF                11179 	.db #0xFF
   23A8 00                11180 	.db #0x00
   23A9 FF                11181 	.db #0xFF
   23AA FF                11182 	.db #0xFF
   23AB 80                11183 	.db #0x80
   23AC FF                11184 	.db #0xFF
   23AD 80                11185 	.db #0x80
   23AE FF                11186 	.db #0xFF
   23AF 80                11187 	.db #0x80
   23B0 FF                11188 	.db #0xFF
   23B1 80                11189 	.db #0x80
   23B2 FF                11190 	.db #0xFF
   23B3 80                11191 	.db #0x80
   23B4 FE                11192 	.db #0xFE
   23B5 81                11193 	.db #0x81
   23B6 FD                11194 	.db #0xFD
   23B7 83                11195 	.db #0x83
   23B8 FB                11196 	.db #0xFB
   23B9 87                11197 	.db #0x87
   23BA F7                11198 	.db #0xF7
   23BB 80                11199 	.db #0x80
   23BC E0                11200 	.db #0xE0
   23BD 8E                11201 	.db #0x8E
   23BE EE                11202 	.db #0xEE
   23BF 80                11203 	.db #0x80
   23C0 E0                11204 	.db #0xE0
   23C1 80                11205 	.db #0x80
   23C2 FF                11206 	.db #0xFF
   23C3 80                11207 	.db #0x80
   23C4 FF                11208 	.db #0xFF
   23C5 80                11209 	.db #0x80
   23C6 FF                11210 	.db #0xFF
   23C7 FF                11211 	.db #0xFF
   23C8 80                11212 	.db #0x80
   23C9 FF                11213 	.db #0xFF
   23CA FF                11214 	.db #0xFF
   23CB 01                11215 	.db #0x01
   23CC FE                11216 	.db #0xFE
   23CD 01                11217 	.db #0x01
   23CE FE                11218 	.db #0xFE
   23CF 01                11219 	.db #0x01
   23D0 FE                11220 	.db #0xFE
   23D1 01                11221 	.db #0x01
   23D2 06                11222 	.db #0x06
   23D3 E1                11223 	.db #0xE1
   23D4 E6                11224 	.db #0xE6
   23D5 D1                11225 	.db #0xD1
   23D6 D6                11226 	.db #0xD6
   23D7 A1                11227 	.db #0xA1
   23D8 AE                11228 	.db #0xAE
   23D9 41                11229 	.db #0x41
   23DA 5E                11230 	.db #0x5E
   23DB 81                11231 	.db #0x81
   23DC BE                11232 	.db #0xBE
   23DD 01                11233 	.db #0x01
   23DE 7E                11234 	.db #0x7E
   23DF 01                11235 	.db #0x01
   23E0 FE                11236 	.db #0xFE
   23E1 01                11237 	.db #0x01
   23E2 FE                11238 	.db #0xFE
   23E3 01                11239 	.db #0x01
   23E4 FE                11240 	.db #0xFE
   23E5 01                11241 	.db #0x01
   23E6 FE                11242 	.db #0xFE
   23E7 FF                11243 	.db #0xFF
   23E8 00                11244 	.db #0x00
   23E9 FF                11245 	.db #0xFF
   23EA FF                11246 	.db #0xFF
   23EB 80                11247 	.db #0x80
   23EC FF                11248 	.db #0xFF
   23ED 80                11249 	.db #0x80
   23EE DF                11250 	.db #0xDF
   23EF 80                11251 	.db #0x80
   23F0 EF                11252 	.db #0xEF
   23F1 80                11253 	.db #0x80
   23F2 F7                11254 	.db #0xF7
   23F3 80                11255 	.db #0x80
   23F4 FB                11256 	.db #0xFB
   23F5 80                11257 	.db #0x80
   23F6 FD                11258 	.db #0xFD
   23F7 80                11259 	.db #0x80
   23F8 FE                11260 	.db #0xFE
   23F9 80                11261 	.db #0x80
   23FA FF                11262 	.db #0xFF
   23FB 80                11263 	.db #0x80
   23FC FF                11264 	.db #0xFF
   23FD 80                11265 	.db #0x80
   23FE FF                11266 	.db #0xFF
   23FF 80                11267 	.db #0x80
   2400 FF                11268 	.db #0xFF
   2401 80                11269 	.db #0x80
   2402 FF                11270 	.db #0xFF
   2403 80                11271 	.db #0x80
   2404 FF                11272 	.db #0xFF
   2405 80                11273 	.db #0x80
   2406 FF                11274 	.db #0xFF
   2407 FF                11275 	.db #0xFF
   2408 80                11276 	.db #0x80
   2409 FF                11277 	.db #0xFF
   240A FF                11278 	.db #0xFF
   240B 01                11279 	.db #0x01
   240C FE                11280 	.db #0xFE
   240D 01                11281 	.db #0x01
   240E FE                11282 	.db #0xFE
   240F 01                11283 	.db #0x01
   2410 FE                11284 	.db #0xFE
   2411 01                11285 	.db #0x01
   2412 FE                11286 	.db #0xFE
   2413 01                11287 	.db #0x01
   2414 FE                11288 	.db #0xFE
   2415 01                11289 	.db #0x01
   2416 FE                11290 	.db #0xFE
   2417 01                11291 	.db #0x01
   2418 FE                11292 	.db #0xFE
   2419 01                11293 	.db #0x01
   241A 7E                11294 	.db #0x7E
   241B 01                11295 	.db #0x01
   241C BE                11296 	.db #0xBE
   241D 01                11297 	.db #0x01
   241E DE                11298 	.db #0xDE
   241F 01                11299 	.db #0x01
   2420 EE                11300 	.db #0xEE
   2421 01                11301 	.db #0x01
   2422 F6                11302 	.db #0xF6
   2423 01                11303 	.db #0x01
   2424 FA                11304 	.db #0xFA
   2425 01                11305 	.db #0x01
   2426 FE                11306 	.db #0xFE
   2427 FF                11307 	.db #0xFF
   2428 00                11308 	.db #0x00
   2429 FF                11309 	.db #0xFF
   242A FF                11310 	.db #0xFF
   242B 80                11311 	.db #0x80
   242C FF                11312 	.db #0xFF
   242D 80                11313 	.db #0x80
   242E FF                11314 	.db #0xFF
   242F 80                11315 	.db #0x80
   2430 E1                11316 	.db #0xE1
   2431 80                11317 	.db #0x80
   2432 FE                11318 	.db #0xFE
   2433 80                11319 	.db #0x80
   2434 FF                11320 	.db #0xFF
   2435 80                11321 	.db #0x80
   2436 FF                11322 	.db #0xFF
   2437 80                11323 	.db #0x80
   2438 FF                11324 	.db #0xFF
   2439 80                11325 	.db #0x80
   243A FF                11326 	.db #0xFF
   243B 80                11327 	.db #0x80
   243C FF                11328 	.db #0xFF
   243D 80                11329 	.db #0x80
   243E FF                11330 	.db #0xFF
   243F 80                11331 	.db #0x80
   2440 FF                11332 	.db #0xFF
   2441 80                11333 	.db #0x80
   2442 FF                11334 	.db #0xFF
   2443 80                11335 	.db #0x80
   2444 FF                11336 	.db #0xFF
   2445 80                11337 	.db #0x80
   2446 FF                11338 	.db #0xFF
   2447 FF                11339 	.db #0xFF
   2448 80                11340 	.db #0x80
   2449 FF                11341 	.db #0xFF
   244A FF                11342 	.db #0xFF
   244B 01                11343 	.db #0x01
   244C FE                11344 	.db #0xFE
   244D 01                11345 	.db #0x01
   244E FE                11346 	.db #0xFE
   244F 01                11347 	.db #0x01
   2450 FE                11348 	.db #0xFE
   2451 01                11349 	.db #0x01
   2452 7E                11350 	.db #0x7E
   2453 01                11351 	.db #0x01
   2454 BE                11352 	.db #0xBE
   2455 01                11353 	.db #0x01
   2456 DE                11354 	.db #0xDE
   2457 01                11355 	.db #0x01
   2458 EE                11356 	.db #0xEE
   2459 01                11357 	.db #0x01
   245A EE                11358 	.db #0xEE
   245B 01                11359 	.db #0x01
   245C F6                11360 	.db #0xF6
   245D 01                11361 	.db #0x01
   245E F6                11362 	.db #0xF6
   245F 01                11363 	.db #0x01
   2460 F6                11364 	.db #0xF6
   2461 01                11365 	.db #0x01
   2462 F6                11366 	.db #0xF6
   2463 01                11367 	.db #0x01
   2464 FE                11368 	.db #0xFE
   2465 01                11369 	.db #0x01
   2466 FE                11370 	.db #0xFE
   2467 FF                11371 	.db #0xFF
   2468 00                11372 	.db #0x00
   2469 FF                11373 	.db #0xFF
   246A FF                11374 	.db #0xFF
   246B 80                11375 	.db #0x80
   246C FF                11376 	.db #0xFF
   246D 80                11377 	.db #0x80
   246E FF                11378 	.db #0xFF
   246F 80                11379 	.db #0x80
   2470 C0                11380 	.db #0xC0
   2471 80                11381 	.db #0x80
   2472 DF                11382 	.db #0xDF
   2473 80                11383 	.db #0x80
   2474 DF                11384 	.db #0xDF
   2475 80                11385 	.db #0x80
   2476 DF                11386 	.db #0xDF
   2477 80                11387 	.db #0x80
   2478 DF                11388 	.db #0xDF
   2479 80                11389 	.db #0x80
   247A DF                11390 	.db #0xDF
   247B 80                11391 	.db #0x80
   247C DF                11392 	.db #0xDF
   247D 80                11393 	.db #0x80
   247E DF                11394 	.db #0xDF
   247F 80                11395 	.db #0x80
   2480 DF                11396 	.db #0xDF
   2481 80                11397 	.db #0x80
   2482 C0                11398 	.db #0xC0
   2483 80                11399 	.db #0x80
   2484 FF                11400 	.db #0xFF
   2485 80                11401 	.db #0x80
   2486 FF                11402 	.db #0xFF
   2487 FF                11403 	.db #0xFF
   2488 80                11404 	.db #0x80
   2489 FF                11405 	.db #0xFF
   248A FF                11406 	.db #0xFF
   248B 01                11407 	.db #0x01
   248C FE                11408 	.db #0xFE
   248D 01                11409 	.db #0x01
   248E FE                11410 	.db #0xFE
   248F 01                11411 	.db #0x01
   2490 02                11412 	.db #0x02
   2491 01                11413 	.db #0x01
   2492 FA                11414 	.db #0xFA
   2493 01                11415 	.db #0x01
   2494 FA                11416 	.db #0xFA
   2495 01                11417 	.db #0x01
   2496 FA                11418 	.db #0xFA
   2497 01                11419 	.db #0x01
   2498 FA                11420 	.db #0xFA
   2499 01                11421 	.db #0x01
   249A FA                11422 	.db #0xFA
   249B 01                11423 	.db #0x01
   249C FA                11424 	.db #0xFA
   249D 01                11425 	.db #0x01
   249E FA                11426 	.db #0xFA
   249F 01                11427 	.db #0x01
   24A0 FA                11428 	.db #0xFA
   24A1 01                11429 	.db #0x01
   24A2 02                11430 	.db #0x02
   24A3 01                11431 	.db #0x01
   24A4 FE                11432 	.db #0xFE
   24A5 01                11433 	.db #0x01
   24A6 FE                11434 	.db #0xFE
   24A7 FF                11435 	.db #0xFF
   24A8 00                11436 	.db #0x00
   24A9 FF                11437 	.db #0xFF
   24AA FF                11438 	.db #0xFF
   24AB 80                11439 	.db #0x80
   24AC FF                11440 	.db #0xFF
   24AD 80                11441 	.db #0x80
   24AE FF                11442 	.db #0xFF
   24AF 80                11443 	.db #0x80
   24B0 FC                11444 	.db #0xFC
   24B1 80                11445 	.db #0x80
   24B2 F3                11446 	.db #0xF3
   24B3 80                11447 	.db #0x80
   24B4 EF                11448 	.db #0xEF
   24B5 80                11449 	.db #0x80
   24B6 DF                11450 	.db #0xDF
   24B7 80                11451 	.db #0x80
   24B8 DF                11452 	.db #0xDF
   24B9 80                11453 	.db #0x80
   24BA DF                11454 	.db #0xDF
   24BB 80                11455 	.db #0x80
   24BC DF                11456 	.db #0xDF
   24BD 80                11457 	.db #0x80
   24BE EF                11458 	.db #0xEF
   24BF 80                11459 	.db #0x80
   24C0 F3                11460 	.db #0xF3
   24C1 80                11461 	.db #0x80
   24C2 FC                11462 	.db #0xFC
   24C3 80                11463 	.db #0x80
   24C4 FF                11464 	.db #0xFF
   24C5 80                11465 	.db #0x80
   24C6 FF                11466 	.db #0xFF
   24C7 FF                11467 	.db #0xFF
   24C8 80                11468 	.db #0x80
   24C9 FF                11469 	.db #0xFF
   24CA FF                11470 	.db #0xFF
   24CB 01                11471 	.db #0x01
   24CC FE                11472 	.db #0xFE
   24CD 01                11473 	.db #0x01
   24CE FE                11474 	.db #0xFE
   24CF 01                11475 	.db #0x01
   24D0 3E                11476 	.db #0x3E
   24D1 01                11477 	.db #0x01
   24D2 CE                11478 	.db #0xCE
   24D3 01                11479 	.db #0x01
   24D4 F6                11480 	.db #0xF6
   24D5 01                11481 	.db #0x01
   24D6 FA                11482 	.db #0xFA
   24D7 01                11483 	.db #0x01
   24D8 FA                11484 	.db #0xFA
   24D9 01                11485 	.db #0x01
   24DA FA                11486 	.db #0xFA
   24DB 01                11487 	.db #0x01
   24DC FA                11488 	.db #0xFA
   24DD 01                11489 	.db #0x01
   24DE F6                11490 	.db #0xF6
   24DF 01                11491 	.db #0x01
   24E0 CE                11492 	.db #0xCE
   24E1 01                11493 	.db #0x01
   24E2 3E                11494 	.db #0x3E
   24E3 01                11495 	.db #0x01
   24E4 FE                11496 	.db #0xFE
   24E5 01                11497 	.db #0x01
   24E6 FE                11498 	.db #0xFE
   24E7 FF                11499 	.db #0xFF
   24E8 00                11500 	.db #0x00
   24E9 FF                11501 	.db #0xFF
   24EA FF                11502 	.db #0xFF
   24EB 80                11503 	.db #0x80
   24EC FF                11504 	.db #0xFF
   24ED 80                11505 	.db #0x80
   24EE FF                11506 	.db #0xFF
   24EF 80                11507 	.db #0x80
   24F0 C0                11508 	.db #0xC0
   24F1 9F                11509 	.db #0x9F
   24F2 C0                11510 	.db #0xC0
   24F3 9F                11511 	.db #0x9F
   24F4 C0                11512 	.db #0xC0
   24F5 9F                11513 	.db #0x9F
   24F6 C0                11514 	.db #0xC0
   24F7 9F                11515 	.db #0x9F
   24F8 C0                11516 	.db #0xC0
   24F9 9F                11517 	.db #0x9F
   24FA C0                11518 	.db #0xC0
   24FB 9F                11519 	.db #0x9F
   24FC C0                11520 	.db #0xC0
   24FD 9F                11521 	.db #0x9F
   24FE C0                11522 	.db #0xC0
   24FF 9F                11523 	.db #0x9F
   2500 C0                11524 	.db #0xC0
   2501 80                11525 	.db #0x80
   2502 C0                11526 	.db #0xC0
   2503 80                11527 	.db #0x80
   2504 FF                11528 	.db #0xFF
   2505 80                11529 	.db #0x80
   2506 FF                11530 	.db #0xFF
   2507 FF                11531 	.db #0xFF
   2508 80                11532 	.db #0x80
   2509 FF                11533 	.db #0xFF
   250A FF                11534 	.db #0xFF
   250B 01                11535 	.db #0x01
   250C FE                11536 	.db #0xFE
   250D 01                11537 	.db #0x01
   250E FE                11538 	.db #0xFE
   250F 01                11539 	.db #0x01
   2510 02                11540 	.db #0x02
   2511 F9                11541 	.db #0xF9
   2512 02                11542 	.db #0x02
   2513 F9                11543 	.db #0xF9
   2514 02                11544 	.db #0x02
   2515 F9                11545 	.db #0xF9
   2516 02                11546 	.db #0x02
   2517 F9                11547 	.db #0xF9
   2518 02                11548 	.db #0x02
   2519 F9                11549 	.db #0xF9
   251A 02                11550 	.db #0x02
   251B F9                11551 	.db #0xF9
   251C 02                11552 	.db #0x02
   251D F9                11553 	.db #0xF9
   251E 02                11554 	.db #0x02
   251F F9                11555 	.db #0xF9
   2520 02                11556 	.db #0x02
   2521 01                11557 	.db #0x01
   2522 02                11558 	.db #0x02
   2523 01                11559 	.db #0x01
   2524 FE                11560 	.db #0xFE
   2525 01                11561 	.db #0x01
   2526 FE                11562 	.db #0xFE
   2527 FF                11563 	.db #0xFF
   2528 00                11564 	.db #0x00
   2529 FF                11565 	.db #0xFF
   252A FF                11566 	.db #0xFF
   252B 80                11567 	.db #0x80
   252C FF                11568 	.db #0xFF
   252D 80                11569 	.db #0x80
   252E FF                11570 	.db #0xFF
   252F 80                11571 	.db #0x80
   2530 FC                11572 	.db #0xFC
   2531 83                11573 	.db #0x83
   2532 F0                11574 	.db #0xF0
   2533 8F                11575 	.db #0x8F
   2534 E0                11576 	.db #0xE0
   2535 9F                11577 	.db #0x9F
   2536 C0                11578 	.db #0xC0
   2537 9F                11579 	.db #0x9F
   2538 C0                11580 	.db #0xC0
   2539 9F                11581 	.db #0x9F
   253A C0                11582 	.db #0xC0
   253B 9F                11583 	.db #0x9F
   253C C0                11584 	.db #0xC0
   253D 8F                11585 	.db #0x8F
   253E E0                11586 	.db #0xE0
   253F 83                11587 	.db #0x83
   2540 F0                11588 	.db #0xF0
   2541 80                11589 	.db #0x80
   2542 FC                11590 	.db #0xFC
   2543 80                11591 	.db #0x80
   2544 FF                11592 	.db #0xFF
   2545 80                11593 	.db #0x80
   2546 FF                11594 	.db #0xFF
   2547 FF                11595 	.db #0xFF
   2548 80                11596 	.db #0x80
   2549 FF                11597 	.db #0xFF
   254A FF                11598 	.db #0xFF
   254B 01                11599 	.db #0x01
   254C FE                11600 	.db #0xFE
   254D 01                11601 	.db #0x01
   254E FE                11602 	.db #0xFE
   254F 01                11603 	.db #0x01
   2550 3E                11604 	.db #0x3E
   2551 C1                11605 	.db #0xC1
   2552 0E                11606 	.db #0x0E
   2553 F1                11607 	.db #0xF1
   2554 06                11608 	.db #0x06
   2555 F9                11609 	.db #0xF9
   2556 02                11610 	.db #0x02
   2557 F9                11611 	.db #0xF9
   2558 02                11612 	.db #0x02
   2559 F9                11613 	.db #0xF9
   255A 02                11614 	.db #0x02
   255B F9                11615 	.db #0xF9
   255C 02                11616 	.db #0x02
   255D F1                11617 	.db #0xF1
   255E 06                11618 	.db #0x06
   255F C1                11619 	.db #0xC1
   2560 0E                11620 	.db #0x0E
   2561 01                11621 	.db #0x01
   2562 3E                11622 	.db #0x3E
   2563 01                11623 	.db #0x01
   2564 FE                11624 	.db #0xFE
   2565 01                11625 	.db #0x01
   2566 FE                11626 	.db #0xFE
   2567 FF                11627 	.db #0xFF
   2568 00                11628 	.db #0x00
   2569 00                11629 	.db #0x00
   256A 00                11630 	.db #0x00
   256B 7F                11631 	.db #0x7F
   256C 7F                11632 	.db #0x7F
   256D 61                11633 	.db #0x61
   256E 61                11634 	.db #0x61
   256F 52                11635 	.db #0x52
   2570 52                11636 	.db #0x52
   2571 4C                11637 	.db #0x4C
   2572 4C                11638 	.db #0x4C
   2573 4C                11639 	.db #0x4C
   2574 4C                11640 	.db #0x4C
   2575 52                11641 	.db #0x52
   2576 52                11642 	.db #0x52
   2577 61                11643 	.db #0x61
   2578 61                11644 	.db #0x61
   2579 40                11645 	.db #0x40
   257A 5E                11646 	.db #0x5E
   257B 40                11647 	.db #0x40
   257C 6D                11648 	.db #0x6D
   257D 40                11649 	.db #0x40
   257E 73                11650 	.db #0x73
   257F 40                11651 	.db #0x40
   2580 73                11652 	.db #0x73
   2581 40                11653 	.db #0x40
   2582 6D                11654 	.db #0x6D
   2583 40                11655 	.db #0x40
   2584 5E                11656 	.db #0x5E
   2585 7F                11657 	.db #0x7F
   2586 7F                11658 	.db #0x7F
   2587 00                11659 	.db #0x00
   2588 7F                11660 	.db #0x7F
   2589 00                11661 	.db #0x00
   258A 00                11662 	.db #0x00
   258B FE                11663 	.db #0xFE
   258C FF                11664 	.db #0xFF
   258D FE                11665 	.db #0xFE
   258E 87                11666 	.db #0x87
   258F FE                11667 	.db #0xFE
   2590 4B                11668 	.db #0x4B
   2591 FE                11669 	.db #0xFE
   2592 33                11670 	.db #0x33
   2593 FE                11671 	.db #0xFE
   2594 33                11672 	.db #0x33
   2595 FE                11673 	.db #0xFE
   2596 4B                11674 	.db #0x4B
   2597 FE                11675 	.db #0xFE
   2598 87                11676 	.db #0x87
   2599 7A                11677 	.db #0x7A
   259A 7B                11678 	.db #0x7B
   259B B6                11679 	.db #0xB6
   259C B7                11680 	.db #0xB7
   259D CE                11681 	.db #0xCE
   259E CF                11682 	.db #0xCF
   259F CE                11683 	.db #0xCE
   25A0 CF                11684 	.db #0xCF
   25A1 B6                11685 	.db #0xB6
   25A2 B7                11686 	.db #0xB7
   25A3 7A                11687 	.db #0x7A
   25A4 7B                11688 	.db #0x7B
   25A5 FE                11689 	.db #0xFE
   25A6 FF                11690 	.db #0xFF
   25A7 00                11691 	.db #0x00
   25A8 FF                11692 	.db #0xFF
   25A9 00                11693 	.db #0x00
   25AA 00                11694 	.db #0x00
   25AB 7F                11695 	.db #0x7F
   25AC 7F                11696 	.db #0x7F
   25AD 73                11697 	.db #0x73
   25AE 73                11698 	.db #0x73
   25AF 6F                11699 	.db #0x6F
   25B0 6F                11700 	.db #0x6F
   25B1 77                11701 	.db #0x77
   25B2 77                11702 	.db #0x77
   25B3 7B                11703 	.db #0x7B
   25B4 7B                11704 	.db #0x7B
   25B5 67                11705 	.db #0x67
   25B6 67                11706 	.db #0x67
   25B7 7F                11707 	.db #0x7F
   25B8 7F                11708 	.db #0x7F
   25B9 7F                11709 	.db #0x7F
   25BA 7F                11710 	.db #0x7F
   25BB 77                11711 	.db #0x77
   25BC 77                11712 	.db #0x77
   25BD 6B                11713 	.db #0x6B
   25BE 6B                11714 	.db #0x6B
   25BF 6B                11715 	.db #0x6B
   25C0 6B                11716 	.db #0x6B
   25C1 6B                11717 	.db #0x6B
   25C2 6B                11718 	.db #0x6B
   25C3 77                11719 	.db #0x77
   25C4 77                11720 	.db #0x77
   25C5 7F                11721 	.db #0x7F
   25C6 7F                11722 	.db #0x7F
   25C7 00                11723 	.db #0x00
   25C8 7F                11724 	.db #0x7F
   25C9 00                11725 	.db #0x00
   25CA 01                11726 	.db #0x01
   25CB FE                11727 	.db #0xFE
   25CC FF                11728 	.db #0xFF
   25CD D6                11729 	.db #0xD6
   25CE D7                11730 	.db #0xD7
   25CF D6                11731 	.db #0xD6
   25D0 D7                11732 	.db #0xD7
   25D1 EE                11733 	.db #0xEE
   25D2 EF                11734 	.db #0xEF
   25D3 D6                11735 	.db #0xD6
   25D4 D7                11736 	.db #0xD7
   25D5 D6                11737 	.db #0xD6
   25D6 D7                11738 	.db #0xD7
   25D7 FE                11739 	.db #0xFE
   25D8 FF                11740 	.db #0xFF
   25D9 FE                11741 	.db #0xFE
   25DA FF                11742 	.db #0xFF
   25DB EE                11743 	.db #0xEE
   25DC EF                11744 	.db #0xEF
   25DD D6                11745 	.db #0xD6
   25DE D7                11746 	.db #0xD7
   25DF C6                11747 	.db #0xC6
   25E0 C7                11748 	.db #0xC7
   25E1 D6                11749 	.db #0xD6
   25E2 D7                11750 	.db #0xD7
   25E3 D6                11751 	.db #0xD6
   25E4 D7                11752 	.db #0xD7
   25E5 FE                11753 	.db #0xFE
   25E6 FF                11754 	.db #0xFF
   25E7 00                11755 	.db #0x00
   25E8 FF                11756 	.db #0xFF
   25E9                   11757 _cursors:
   25E9 00                11758 	.db #0x00
   25EA 01                11759 	.db #0x01
   25EB 01                11760 	.db #0x01
   25EC 00                11761 	.db #0x00
   25ED 00                11762 	.db #0x00
   25EE 01                11763 	.db #0x01
   25EF 02                11764 	.db #0x02
   25F0 02                11765 	.db #0x02
   25F1 00                11766 	.db #0x00
   25F2 0F                11767 	.db #0x0F
   25F3 05                11768 	.db #0x05
   25F4 02                11769 	.db #0x02
   25F5 02                11770 	.db #0x02
   25F6 00                11771 	.db #0x00
   25F7 0F                11772 	.db #0x0F
   25F8 09                11773 	.db #0x09
   25F9 02                11774 	.db #0x02
   25FA 02                11775 	.db #0x02
   25FB 02                11776 	.db #0x02
   25FC 0F                11777 	.db #0x0F
   25FD 0D                11778 	.db #0x0D
   25FE 02                11779 	.db #0x02
   25FF 02                11780 	.db #0x02
   2600 00                11781 	.db #0x00
   2601 0F                11782 	.db #0x0F
   2602 11                11783 	.db #0x11
   2603 02                11784 	.db #0x02
   2604 02                11785 	.db #0x02
   2605 05                11786 	.db #0x05
   2606 0A                11787 	.db #0x0A
   2607                   11788 _cursors_data:
   2607 FF                11789 	.db #0xFF
   2608 00                11790 	.db #0x00
   2609 FF                11791 	.db #0xFF
   260A 7E                11792 	.db #0x7E
   260B FF                11793 	.db #0xFF
   260C 7C                11794 	.db #0x7C
   260D FE                11795 	.db #0xFE
   260E 78                11796 	.db #0x78
   260F FF                11797 	.db #0xFF
   2610 7C                11798 	.db #0x7C
   2611 FF                11799 	.db #0xFF
   2612 6E                11800 	.db #0x6E
   2613 FF                11801 	.db #0xFF
   2614 46                11802 	.db #0x46
   2615 EF                11803 	.db #0xEF
   2616 00                11804 	.db #0x00
   2617 00                11805 	.db #0x00
   2618 00                11806 	.db #0x00
   2619 00                11807 	.db #0x00
   261A 00                11808 	.db #0x00
   261B 00                11809 	.db #0x00
   261C 00                11810 	.db #0x00
   261D 00                11811 	.db #0x00
   261E 00                11812 	.db #0x00
   261F 00                11813 	.db #0x00
   2620 00                11814 	.db #0x00
   2621 01                11815 	.db #0x01
   2622 00                11816 	.db #0x00
   2623 03                11817 	.db #0x03
   2624 00                11818 	.db #0x00
   2625 07                11819 	.db #0x07
   2626 01                11820 	.db #0x01
   2627 0F                11821 	.db #0x0F
   2628 02                11822 	.db #0x02
   2629 1F                11823 	.db #0x1F
   262A 05                11824 	.db #0x05
   262B 3F                11825 	.db #0x3F
   262C 0A                11826 	.db #0x0A
   262D 7F                11827 	.db #0x7F
   262E 14                11828 	.db #0x14
   262F 7E                11829 	.db #0x7E
   2630 28                11830 	.db #0x28
   2631 FC                11831 	.db #0xFC
   2632 30                11832 	.db #0x30
   2633 F8                11833 	.db #0xF8
   2634 40                11834 	.db #0x40
   2635 60                11835 	.db #0x60
   2636 00                11836 	.db #0x00
   2637 00                11837 	.db #0x00
   2638 00                11838 	.db #0x00
   2639 00                11839 	.db #0x00
   263A 00                11840 	.db #0x00
   263B 3C                11841 	.db #0x3C
   263C 00                11842 	.db #0x00
   263D 7C                11843 	.db #0x7C
   263E 18                11844 	.db #0x18
   263F FC                11845 	.db #0xFC
   2640 28                11846 	.db #0x28
   2641 FC                11847 	.db #0xFC
   2642 50                11848 	.db #0x50
   2643 F8                11849 	.db #0xF8
   2644 A0                11850 	.db #0xA0
   2645 F0                11851 	.db #0xF0
   2646 40                11852 	.db #0x40
   2647 E0                11853 	.db #0xE0
   2648 80                11854 	.db #0x80
   2649 C0                11855 	.db #0xC0
   264A 00                11856 	.db #0x00
   264B 80                11857 	.db #0x80
   264C 00                11858 	.db #0x00
   264D 00                11859 	.db #0x00
   264E 00                11860 	.db #0x00
   264F 00                11861 	.db #0x00
   2650 00                11862 	.db #0x00
   2651 00                11863 	.db #0x00
   2652 00                11864 	.db #0x00
   2653 00                11865 	.db #0x00
   2654 00                11866 	.db #0x00
   2655 00                11867 	.db #0x00
   2656 00                11868 	.db #0x00
   2657 00                11869 	.db #0x00
   2658 00                11870 	.db #0x00
   2659 00                11871 	.db #0x00
   265A 00                11872 	.db #0x00
   265B 00                11873 	.db #0x00
   265C 00                11874 	.db #0x00
   265D 00                11875 	.db #0x00
   265E 00                11876 	.db #0x00
   265F 01                11877 	.db #0x01
   2660 00                11878 	.db #0x00
   2661 03                11879 	.db #0x03
   2662 00                11880 	.db #0x00
   2663 07                11881 	.db #0x07
   2664 01                11882 	.db #0x01
   2665 0F                11883 	.db #0x0F
   2666 02                11884 	.db #0x02
   2667 1F                11885 	.db #0x1F
   2668 05                11886 	.db #0x05
   2669 7F                11887 	.db #0x7F
   266A 0A                11888 	.db #0x0A
   266B FF                11889 	.db #0xFF
   266C 34                11890 	.db #0x34
   266D FE                11891 	.db #0xFE
   266E 78                11892 	.db #0x78
   266F FC                11893 	.db #0xFC
   2670 78                11894 	.db #0x78
   2671 FC                11895 	.db #0xFC
   2672 70                11896 	.db #0x70
   2673 F8                11897 	.db #0xF8
   2674 40                11898 	.db #0x40
   2675 60                11899 	.db #0x60
   2676 00                11900 	.db #0x00
   2677 00                11901 	.db #0x00
   2678 00                11902 	.db #0x00
   2679 00                11903 	.db #0x00
   267A 00                11904 	.db #0x00
   267B 78                11905 	.db #0x78
   267C 00                11906 	.db #0x00
   267D F8                11907 	.db #0xF8
   267E 30                11908 	.db #0x30
   267F F8                11909 	.db #0xF8
   2680 50                11910 	.db #0x50
   2681 F8                11911 	.db #0xF8
   2682 A0                11912 	.db #0xA0
   2683 F0                11913 	.db #0xF0
   2684 40                11914 	.db #0x40
   2685 E0                11915 	.db #0xE0
   2686 80                11916 	.db #0x80
   2687 C0                11917 	.db #0xC0
   2688 00                11918 	.db #0x00
   2689 80                11919 	.db #0x80
   268A 00                11920 	.db #0x00
   268B 00                11921 	.db #0x00
   268C 00                11922 	.db #0x00
   268D 00                11923 	.db #0x00
   268E 00                11924 	.db #0x00
   268F 00                11925 	.db #0x00
   2690 00                11926 	.db #0x00
   2691 00                11927 	.db #0x00
   2692 00                11928 	.db #0x00
   2693 00                11929 	.db #0x00
   2694 00                11930 	.db #0x00
   2695 00                11931 	.db #0x00
   2696 00                11932 	.db #0x00
   2697 00                11933 	.db #0x00
   2698 00                11934 	.db #0x00
   2699 00                11935 	.db #0x00
   269A 00                11936 	.db #0x00
   269B 07                11937 	.db #0x07
   269C 00                11938 	.db #0x00
   269D 0F                11939 	.db #0x0F
   269E 02                11940 	.db #0x02
   269F 1F                11941 	.db #0x1F
   26A0 05                11942 	.db #0x05
   26A1 7F                11943 	.db #0x7F
   26A2 08                11944 	.db #0x08
   26A3 FE                11945 	.db #0xFE
   26A4 31                11946 	.db #0x31
   26A5 FD                11947 	.db #0xFD
   26A6 63                11948 	.db #0x63
   26A7 FA                11949 	.db #0xFA
   26A8 77                11950 	.db #0x77
   26A9 FD                11951 	.db #0xFD
   26AA 6E                11952 	.db #0x6E
   26AB FF                11953 	.db #0xFF
   26AC 64                11954 	.db #0x64
   26AD FF                11955 	.db #0xFF
   26AE 62                11956 	.db #0x62
   26AF F7                11957 	.db #0xF7
   26B0 21                11958 	.db #0x21
   26B1 73                11959 	.db #0x73
   26B2 20                11960 	.db #0x20
   26B3 70                11961 	.db #0x70
   26B4 20                11962 	.db #0x20
   26B5 50                11963 	.db #0x50
   26B6 00                11964 	.db #0x00
   26B7 00                11965 	.db #0x00
   26B8 00                11966 	.db #0x00
   26B9 00                11967 	.db #0x00
   26BA 00                11968 	.db #0x00
   26BB 00                11969 	.db #0x00
   26BC 00                11970 	.db #0x00
   26BD 80                11971 	.db #0x80
   26BE 00                11972 	.db #0x00
   26BF C0                11973 	.db #0xC0
   26C0 00                11974 	.db #0x00
   26C1 E0                11975 	.db #0xE0
   26C2 80                11976 	.db #0x80
   26C3 F0                11977 	.db #0xF0
   26C4 C0                11978 	.db #0xC0
   26C5 78                11979 	.db #0x78
   26C6 A0                11980 	.db #0xA0
   26C7 F8                11981 	.db #0xF8
   26C8 10                11982 	.db #0x10
   26C9 F8                11983 	.db #0xF8
   26CA 20                11984 	.db #0x20
   26CB F0                11985 	.db #0xF0
   26CC 40                11986 	.db #0x40
   26CD E0                11987 	.db #0xE0
   26CE 80                11988 	.db #0x80
   26CF C0                11989 	.db #0xC0
   26D0 00                11990 	.db #0x00
   26D1 80                11991 	.db #0x80
   26D2 00                11992 	.db #0x00
   26D3 00                11993 	.db #0x00
   26D4 00                11994 	.db #0x00
   26D5 00                11995 	.db #0x00
   26D6 00                11996 	.db #0x00
   26D7 00                11997 	.db #0x00
   26D8 00                11998 	.db #0x00
   26D9 00                11999 	.db #0x00
   26DA 00                12000 	.db #0x00
   26DB 00                12001 	.db #0x00
   26DC 00                12002 	.db #0x00
   26DD 00                12003 	.db #0x00
   26DE 00                12004 	.db #0x00
   26DF 00                12005 	.db #0x00
   26E0 00                12006 	.db #0x00
   26E1 00                12007 	.db #0x00
   26E2 00                12008 	.db #0x00
   26E3 07                12009 	.db #0x07
   26E4 00                12010 	.db #0x00
   26E5 0F                12011 	.db #0x0F
   26E6 03                12012 	.db #0x03
   26E7 1F                12013 	.db #0x1F
   26E8 04                12014 	.db #0x04
   26E9 3F                12015 	.db #0x3F
   26EA 08                12016 	.db #0x08
   26EB 7F                12017 	.db #0x7F
   26EC 11                12018 	.db #0x11
   26ED FF                12019 	.db #0xFF
   26EE 22                12020 	.db #0x22
   26EF FF                12021 	.db #0xFF
   26F0 7D                12022 	.db #0x7D
   26F1 FF                12023 	.db #0xFF
   26F2 46                12024 	.db #0x46
   26F3 FF                12025 	.db #0xFF
   26F4 7C                12026 	.db #0x7C
   26F5 7E                12027 	.db #0x7E
   26F6 00                12028 	.db #0x00
   26F7 00                12029 	.db #0x00
   26F8 00                12030 	.db #0x00
   26F9 00                12031 	.db #0x00
   26FA 00                12032 	.db #0x00
   26FB 00                12033 	.db #0x00
   26FC 00                12034 	.db #0x00
   26FD 00                12035 	.db #0x00
   26FE 00                12036 	.db #0x00
   26FF 00                12037 	.db #0x00
   2700 00                12038 	.db #0x00
   2701 00                12039 	.db #0x00
   2702 00                12040 	.db #0x00
   2703 F0                12041 	.db #0xF0
   2704 00                12042 	.db #0x00
   2705 F0                12043 	.db #0xF0
   2706 E0                12044 	.db #0xE0
   2707 F0                12045 	.db #0xF0
   2708 60                12046 	.db #0x60
   2709 F0                12047 	.db #0xF0
   270A A0                12048 	.db #0xA0
   270B F0                12049 	.db #0xF0
   270C 40                12050 	.db #0x40
   270D E0                12051 	.db #0xE0
   270E 80                12052 	.db #0x80
   270F C0                12053 	.db #0xC0
   2710 00                12054 	.db #0x00
   2711 80                12055 	.db #0x80
   2712 00                12056 	.db #0x00
   2713 00                12057 	.db #0x00
   2714 00                12058 	.db #0x00
   2715 00                12059 	.db #0x00
   2716 00                12060 	.db #0x00
   2717 00                12061 	.db #0x00
   2718 00                12062 	.db #0x00
   2719 00                12063 	.db #0x00
   271A 00                12064 	.db #0x00
   271B 00                12065 	.db #0x00
   271C 00                12066 	.db #0x00
   271D 00                12067 	.db #0x00
   271E 00                12068 	.db #0x00
   271F 00                12069 	.db #0x00
   2720 00                12070 	.db #0x00
   2721 0E                12071 	.db #0x0E
   2722 00                12072 	.db #0x00
   2723 0E                12073 	.db #0x0E
   2724 04                12074 	.db #0x04
   2725 0E                12075 	.db #0x0E
   2726 04                12076 	.db #0x04
   2727 0E                12077 	.db #0x0E
   2728 04                12078 	.db #0x04
   2729 FF                12079 	.db #0xFF
   272A 04                12080 	.db #0x04
   272B FB                12081 	.db #0xFB
   272C 7B                12082 	.db #0x7B
   272D FF                12083 	.db #0xFF
   272E 04                12084 	.db #0x04
   272F 0E                12085 	.db #0x0E
   2730 04                12086 	.db #0x04
   2731 0E                12087 	.db #0x0E
   2732 04                12088 	.db #0x04
   2733 0E                12089 	.db #0x0E
   2734 04                12090 	.db #0x04
   2735 0E                12091 	.db #0x0E
   2736 00                12092 	.db #0x00
   2737 00                12093 	.db #0x00
   2738 00                12094 	.db #0x00
   2739 00                12095 	.db #0x00
   273A 00                12096 	.db #0x00
   273B 00                12097 	.db #0x00
   273C 00                12098 	.db #0x00
   273D 00                12099 	.db #0x00
   273E 00                12100 	.db #0x00
   273F 00                12101 	.db #0x00
   2740 00                12102 	.db #0x00
   2741 00                12103 	.db #0x00
   2742 00                12104 	.db #0x00
   2743 00                12105 	.db #0x00
   2744 00                12106 	.db #0x00
   2745 00                12107 	.db #0x00
   2746 00                12108 	.db #0x00
   2747 00                12109 	.db #0x00
   2748 00                12110 	.db #0x00
   2749 E0                12111 	.db #0xE0
   274A 00                12112 	.db #0x00
   274B E0                12113 	.db #0xE0
   274C C0                12114 	.db #0xC0
   274D E0                12115 	.db #0xE0
   274E 00                12116 	.db #0x00
   274F 00                12117 	.db #0x00
   2750 00                12118 	.db #0x00
   2751 00                12119 	.db #0x00
   2752 00                12120 	.db #0x00
   2753 00                12121 	.db #0x00
   2754 00                12122 	.db #0x00
   2755 00                12123 	.db #0x00
   2756 00                12124 	.db #0x00
   2757                   12125 _colors:
   2757 00                12126 	.db #0x00
   2758 02                12127 	.db #0x02
   2759 01                12128 	.db #0x01
   275A 03                12129 	.db #0x03
   275B                   12130 _modes:
   275B 00                12131 	.db #0x00
   275C 01                12132 	.db #0x01
   275D 02                12133 	.db #0x02
   275E 03                12134 	.db #0x03
   275F                   12135 __str_0:
   275F 49 20 41 4D 20 45 12136 	.ascii "I AM ERROR    "
        52 52 4F 52 20 20
        20 20
   276D 00                12137 	.db 0
ASxxxx Assembler V01.75  (GameBoy Z80-like CPU), page 1.

Symbol Table

    _BCPD_REG                          **** GX
    _BCPS_REG                          **** GX
    _BGP_REG                           **** GX
    _DIV_REG                           **** GX
    _DMA_REG                           **** GX
    _HDMA1_REG                         **** GX
    _HDMA2_REG                         **** GX
    _HDMA3_REG                         **** GX
    _HDMA4_REG                         **** GX
    _HDMA5_REG                         **** GX
    _IE_REG                            **** GX
    _IF_REG                            **** GX
    _KEY1_REG                          **** GX
    _LCDC_REG                          **** GX
    _LYC_REG                           **** GX
    _LY_REG                            **** GX
    _NR10_REG                          **** GX
    _NR11_REG                          **** GX
    _NR12_REG                          **** GX
    _NR13_REG                          **** GX
    _NR14_REG                          **** GX
    _NR21_REG                          **** GX
    _NR22_REG                          **** GX
    _NR23_REG                          **** GX
    _NR24_REG                          **** GX
    _NR30_REG                          **** GX
    _NR31_REG                          **** GX
    _NR32_REG                          **** GX
    _NR33_REG                          **** GX
    _NR34_REG                          **** GX
    _NR41_REG                          **** GX
    _NR42_REG                          **** GX
    _NR43_REG                          **** GX
    _NR44_REG                          **** GX
    _NR50_REG                          **** GX
    _NR51_REG                          **** GX
    _NR52_REG                          **** GX
    _OBP0_REG                          **** GX
    _OBP1_REG                          **** GX
    _OCPD_REG                          **** GX
    _OCPS_REG                          **** GX
    _P1_REG                            **** GX
    _RP_REG                            **** GX
    _SB_REG                            **** GX
    _SCX_REG                           **** GX
    _SCY_REG                           **** GX
    _SC_REG                            **** GX
    _STAT_REG                          **** GX
    _SVBK_REG                          **** GX
    _TAC_REG                           **** GX
    _TIMA_REG                          **** GX
    _TMA_REG                           **** GX
    _VBK_REG                           **** GX
    _WX_REG                            **** GX
    _WY_REG                            **** GX
  0 ___change_icon_end                 17FA R
  0 ___change_icon_start               160C R
  0 ___delayFrames_end                 1E77 R
  0 ___delayFrames_start               1E63 R
  0 ___effect_test_end                 06F3 R
  0 ___effect_test_start               01BC R
  0 ___fontTest_end                    1EB9 R
  0 ___fontTest_start                  1E77 R
  0 ___instru_test_end                 0DC1 R
  0 ___instru_test_start               06F3 R
  0 ___main_end                        1F30 R
  0 ___main_start                      1F23 R
  0 ___menu_end                        1CF8 R
  0 ___menu_start                      1A32 R
  0 ___move_cursor_end                 13FA R
  0 ___move_cursor_start               12E5 R
  0 ___move_menu_cursor_end            1471 R
  0 ___move_menu_cursor_start          13FA R
  0 ___musicTest_end                   1F23 R
  0 ___musicTest_start                 1EB9 R
  0 ___music_end                       11ED R
  0 ___music_start                     1156 R
  0 ___patern_definition_end           0136 R
  0 ___patern_definition_start         0000 R
  0 ___reset_icon_end                  18FF R
  0 ___reset_icon_start                17FA R
  0 ___resetmusic_end                  01BC R
  0 ___resetmusic_start                016D R
  0 ___run_end                         1E63 R
  0 ___run_start                       1CF8 R
  0 ___set_cursor_end                  12E5 R
  0 ___set_cursor_start                11ED R
  0 ___set_icon_end                    160C R
  0 ___set_icon_start                  1471 R
  0 ___splash_end                      1A32 R
  0 ___splash_start                    18FF R
  0 ___stopmusic_end                   016D R
  0 ___stopmusic_start                 0136 R
  0 ___voice0_end                      0EBD R
  0 ___voice0_start                    0DC1 R
  0 ___voice1_end                      0FB4 R
  0 ___voice1_start                    0EBD R
  0 ___voice2_end                      10A4 R
  0 ___voice2_start                    0FB4 R
  0 ___voice3_end                      1156 R
  0 ___voice3_start                    10A4 R
    __cpu                              **** GX
    __io_in                            **** GX
    __io_out                           **** GX
    __io_status                        **** GX
    __muluchar                         **** GX
  0 __str_0                            275F R
    _add_LCD                           **** GX
    _add_TIM                           **** GX
    _add_VBL                           **** GX
    _box                               **** GX
    _cgb_compatibility                 **** GX
  0 _change_icon                       160C GR
    _circle                            **** GX
  1 _clock01                           0008 GR
    _color                             **** GX
  0 _colors                            2757 GR
    _cpu_fast                          **** GX
    _cpu_slow                          **** GX
  1 _current_color                     04CD GR
  1 _current_cursor                    04CF GR
  1 _current_mode                      04CE GR
  1 _current_tool                      04CC GR
  1 _cursor_x                          04D1 GR
  1 _cursor_y                          04D2 GR
  0 _cursors                           25E9 GR
  0 _cursors_data                      2607 GR
  0 _data                              1FE9 GR
  1 _data_buffer                       01CC GR
  1 _data_song                         001A GR
    _data_song_fullos0                 **** GX
    _data_song_fullos1                 **** GX
    _data_song_fullos2                 **** GX
    _data_song_fullos3                 **** GX
    _data_song_fullos4                 **** GX
    _data_song_fullos5                 **** GX
    _data_song_fullos6                 **** GX
    _data_song_fullos7                 **** GX
    _data_song_fullos8                 **** GX
  1 _data_song_ptr                     0006 GR
    _delay                             **** GX
  0 _delayFrames                       1E63 GR
    _disable_interrupts                **** GX
    _display_off                       **** GX
    _draw_image                        **** GX
  0 _effect_test                       01BC GR
    _enable_interrupts                 **** GX
  0 _fontTest                          1E77 GR
    _font_ibm                          **** GX
    _font_ibm_fixed                    **** GX
    _font_init                         **** GX
    _font_italic                       **** GX
    _font_load                         **** GX
    _font_min                          **** GX
    _font_set                          **** GX
    _font_spect                        **** GX
  1 _freqHI                            0013 GR
  1 _freqHI_v1                         0014 GR
  1 _freqHI_v2                         0016 GR
  1 _freqLOW                           0012 GR
  1 _frequencies                       013C GR
  1 _fx_pan0                           001E GR
  1 _fx_pan1                           0020 GR
  1 _fx_pan2                           0022 GR
  1 _fx_pan3                           0024 GR
  1 _fx_value                          001C GR
  1 _fx_volume                         001D GR
  1 _gb_freq                           0018 GR
    _get_bkg_tiles                     **** GX
    _get_data                          **** GX
    _get_mode                          **** GX
    _get_sprite_data                   **** GX
    _get_sprite_prop                   **** GX
    _get_sprite_tile                   **** GX
    _get_tiles                         **** GX
    _get_win_tiles                     **** GX
    _getpix                            **** GX
    _gets                              **** GX
    _gotogxy                           **** GX
    _gotoxy                            **** GX
    _gprint                            **** GX
    _gprintf                           **** GX
    _gprintln                          **** GX
    _gprintn                           **** GX
    _hiramcpy                          **** GX
  0 _icons                             1F35 GR
  0 _initL                             1F30 GR
  0 _instru_test                       06F3 GR
    _joypad                            **** GX
    _line                              **** GX
  0 _main                              1F23 GR
  0 _menu                              1A32 GR
  1 _menu_cursor_pos                   04D0 GR
    _mode                              **** GX
  0 _modes                             275B GR
    _move_bkg                          **** GX
  0 _move_cursor                       12E5 GR
  0 _move_menu_cursor                  13FA GR
    _move_sprite                       **** GX
    _move_win                          **** GX
  0 _music                             1156 GR
  0 _musicTest                         1EB9 GR
  1 _musicwait                         000E GR
  1 _nbr_patern                        0002 GR
  1 _patern                            0000 GR
  0 _patern_definition                 0000 GR
    _plot                              **** GX
    _plot_point                        **** GX
    _posx                              **** GX
    _posy                              **** GX
    _print_repeat                      **** GX
    _printf                            **** GX
    _putchar                           **** GX
    _puts                              **** GX
    _receive_byte                      **** GX
    _remove_JOY                        **** GX
    _remove_LCD                        **** GX
    _remove_SIO                        **** GX
    _remove_TIM                        **** GX
    _remove_VBL                        **** GX
    _reset                             **** GX
  0 _reset_icon                        17FA GR
  0 _resetmusic                        016D GR
  0 _run                               1CF8 GR
    _scroll_bkg                        **** GX
    _scroll_sprite                     **** GX
    _scroll_win                        **** GX
  0 _selected_data                     22E9 GR
    _send_byte                         **** GX
    _set_bkg_data                      **** GX
    _set_bkg_palette                   **** GX
    _set_bkg_palette_entry             **** GX
    _set_bkg_tiles                     **** GX
  0 _set_cursor                        11ED GR
    _set_data                          **** GX
  0 _set_icon                          1471 GR
    _set_interrupts                    **** GX
    _set_sprite_data                   **** GX
    _set_sprite_palette                **** GX
    _set_sprite_palette_entry          **** GX
    _set_sprite_prop                   **** GX
    _set_sprite_tile                   **** GX
    _set_tiles                         **** GX
    _set_win_data                      **** GX
    _set_win_tiles                     **** GX
    _setchar                           **** GX
    _sgb_check                         **** GX
  1 _snd_cons0                         002C GR
  1 _snd_cons1                         0032 GR
  1 _snd_cons3                         003A GR
  1 _snd_env0                          002A GR
  1 _snd_env1                          0030 GR
  1 _snd_env3                          0036 GR
  1 _snd_lngh0                         0028 GR
  1 _snd_lngh1                         002E GR
  1 _snd_lngh3                         0034 GR
  1 _snd_poly3                         0038 GR
  1 _snd_swp0                          0026 GR
  1 _song_nbr                          0004 GR
  0 _splash                            18FF GR
    _sprintf                           **** GX
  1 _step                              000A GR
  0 _stopmusic                         0136 GR
    _switch_data                       **** GX
    _sys_time                          **** GX
  1 _timer                             000C GR
  1 _voice                             0010 GR
  0 _voice0                            0DC1 GR
  0 _voice1                            0EBD GR
  0 _voice2                            0FB4 GR
  0 _voice3                            10A4 GR
    _wait_vbl_done                     **** GX
    _waitpad                           **** GX
    _waitpadup                         **** GX
  1 _wave                              003C GR
    _wrtchr                            **** GX

ASxxxx Assembler V01.75  (GameBoy Z80-like CPU), page 2.

Area Table

   0 _CODE                              size 276E   flags 0
   1 _DATA                              size  4D3   flags 0
   2 _OVERLAY                           size    0   flags 0
   3 _ISEG                              size    0   flags 0
   4 _BSEG                              size    0   flags 0
   5 _XSEG                              size    0   flags 0
   6 _GSINIT                            size  7D0   flags 0
   7 _GSFINAL                           size    0   flags 0
